libupm-a110x.so.1:_ZN3upm5A110X10installISREPFvPvES1_
libupm-a110x.so.1:_ZN3upm5A110X12uninstallISREv
libupm-a110x.so.1:_ZN3upm5A110X14magnetDetectedEv
libupm-a110x.so.1:_ZN3upm5A110XC1Ei
libupm-a110x.so.1:_ZN3upm5A110XC2Ei
libupm-a110x.so.1:_ZN3upm5A110XD1Ev
libupm-a110x.so.1:_ZN3upm5A110XD2Ev
libupm-abp.so.1:_ZN3upm3ABP11getPressureEv
libupm-abp.so.1:_ZN3upm3ABP14getTemperatureEv
libupm-abp.so.1:_ZN3upm3ABP14setMaxPressureEi
libupm-abp.so.1:_ZN3upm3ABP14setMinPressureEi
libupm-abp.so.1:_ZN3upm3ABP6updateEv
libupm-abp.so.1:_ZN3upm3ABPC1Eii
libupm-abp.so.1:_ZN3upm3ABPC2Eii
libupm-abp.so.1:_ZN3upm3ABPD1Ev
libupm-abp.so.1:_ZN3upm3ABPD2Ev
libupm-ad8232.so.1:_ZN3upm6AD82325valueEv
libupm-ad8232.so.1:_ZN3upm6AD8232C1Eiiif
libupm-ad8232.so.1:_ZN3upm6AD8232C2Eiiif
libupm-ad8232.so.1:_ZN3upm6AD8232D1Ev
libupm-ad8232.so.1:_ZN3upm6AD8232D2Ev
libupm-adafruitms1438.so.1:_ZN3upm14AdafruitMS143810stepConfigENS0_12STEPMOTORS_TEj
libupm-adafruitms1438.so.1:_ZN3upm14AdafruitMS143811enableMotorENS0_10DCMOTORS_TE
libupm-adafruitms1438.so.1:_ZN3upm14AdafruitMS143811stepperStepENS0_12STEPMOTORS_TE
libupm-adafruitms1438.so.1:_ZN3upm14AdafruitMS143812disableMotorENS0_10DCMOTORS_TE
libupm-adafruitms1438.so.1:_ZN3upm14AdafruitMS143812setPWMPeriodEf
libupm-adafruitms1438.so.1:_ZN3upm14AdafruitMS143812setupPinMapsEv
libupm-adafruitms1438.so.1:_ZN3upm14AdafruitMS143812stepperStepsENS0_12STEPMOTORS_TEj
libupm-adafruitms1438.so.1:_ZN3upm14AdafruitMS143813enableStepperENS0_12STEPMOTORS_TE
libupm-adafruitms1438.so.1:_ZN3upm14AdafruitMS143813setMotorSpeedENS0_10DCMOTORS_TEi
libupm-adafruitms1438.so.1:_ZN3upm14AdafruitMS143814disableStepperENS0_12STEPMOTORS_TE
libupm-adafruitms1438.so.1:_ZN3upm14AdafruitMS143815setStepperSpeedENS0_12STEPMOTORS_TEi
libupm-adafruitms1438.so.1:_ZN3upm14AdafruitMS143817setMotorDirectionENS0_10DCMOTORS_TENS0_11DIRECTION_TE
libupm-adafruitms1438.so.1:_ZN3upm14AdafruitMS143819setStepperDirectionENS0_12STEPMOTORS_TENS0_11DIRECTION_TE
libupm-adafruitms1438.so.1:_ZN3upm14AdafruitMS14389getMillisENS0_12STEPMOTORS_TE
libupm-adafruitms1438.so.1:_ZN3upm14AdafruitMS14389initClockENS0_12STEPMOTORS_TE
libupm-adafruitms1438.so.1:_ZN3upm14AdafruitMS1438C1Eih
libupm-adafruitms1438.so.1:_ZN3upm14AdafruitMS1438C2Eih
libupm-adafruitms1438.so.1:_ZN3upm14AdafruitMS1438D1Ev
libupm-adafruitms1438.so.1:_ZN3upm14AdafruitMS1438D2Ev
libupm-adafruitss.so.1:_ZN3upm10adafruitss10setPWMFreqEf
libupm-adafruitss.so.1:_ZN3upm10adafruitss5servoEhhf
libupm-adafruitss.so.1:_ZN3upm10adafruitss6updateEv
libupm-adafruitss.so.1:_ZN3upm10adafruitssC1Eii
libupm-adafruitss.so.1:_ZN3upm10adafruitssC2Eii
libupm-adc121c021.so.1:_ZN3upm10ADC121C02112valueToVoltsEt
libupm-adc121c021.so.1:_ZN3upm10ADC121C02113setHysteresisEt
libupm-adc121c021.so.1:_ZN3upm10ADC121C02114enableAlertPinEb
libupm-adc121c021.so.1:_ZN3upm10ADC121C02114getAlertStatusEv
libupm-adc121c021.so.1:_ZN3upm10ADC121C02115enableAlertFlagEb
libupm-adc121c021.so.1:_ZN3upm10ADC121C02115enableAlertHoldEb
libupm-adc121c021.so.1:_ZN3upm10ADC121C02116clearAlertStatusEv
libupm-adc121c021.so.1:_ZN3upm10ADC121C02116setAlertLowLimitEt
libupm-adc121c021.so.1:_ZN3upm10ADC121C02117setAlertHighLimitEt
libupm-adc121c021.so.1:_ZN3upm10ADC121C02119getLowestConversionEv
libupm-adc121c021.so.1:_ZN3upm10ADC121C02120getHighestConversionEv
libupm-adc121c021.so.1:_ZN3upm10ADC121C02121clearLowestConversionEv
libupm-adc121c021.so.1:_ZN3upm10ADC121C02122clearHighestConversionEv
libupm-adc121c021.so.1:_ZN3upm10ADC121C02122setAutomaticConversionENS_23ADC121C021_CYCLE_TIME_TE
libupm-adc121c021.so.1:_ZN3upm10ADC121C02126enableAlertPinPolarityHighEb
libupm-adc121c021.so.1:_ZN3upm10ADC121C0215valueEv
libupm-adc121c021.so.1:_ZN3upm10ADC121C0218readByteEh
libupm-adc121c021.so.1:_ZN3upm10ADC121C0218readWordEh
libupm-adc121c021.so.1:_ZN3upm10ADC121C0219writeByteEhh
libupm-adc121c021.so.1:_ZN3upm10ADC121C0219writeWordEht
libupm-adc121c021.so.1:_ZN3upm10ADC121C021C1Eihf
libupm-adc121c021.so.1:_ZN3upm10ADC121C021C2Eihf
libupm-adc121c021.so.1:_ZN3upm10ADC121C021D1Ev
libupm-adc121c021.so.1:_ZN3upm10ADC121C021D2Ev
libupm-adis16448.so.1:_ZN3upm9ADIS1644810accelScaleEs
libupm-adis16448.so.1:_ZN3upm9ADIS1644813pressureScaleEs
libupm-adis16448.so.1:_ZN3upm9ADIS1644817magnetometerScaleEs
libupm-adis16448.so.1:_ZN3upm9ADIS164487regReadEh
libupm-adis16448.so.1:_ZN3upm9ADIS164488regWriteEht
libupm-adis16448.so.1:_ZN3upm9ADIS164488resetDUTEv
libupm-adis16448.so.1:_ZN3upm9ADIS164489configSPIEv
libupm-adis16448.so.1:_ZN3upm9ADIS164489gyroScaleEs
libupm-adis16448.so.1:_ZN3upm9ADIS164489tempScaleEs
libupm-adis16448.so.1:_ZN3upm9ADIS16448C1Eii
libupm-adis16448.so.1:_ZN3upm9ADIS16448C2Eii
libupm-adis16448.so.1:_ZN3upm9ADIS16448D1Ev
libupm-adis16448.so.1:_ZN3upm9ADIS16448D2Ev
libupm-ads1x15.so.1:_ZN3upm7ADS101510getMuxModeEj
libupm-ads1x15.so.1:_ZN3upm7ADS101510getVoltageEj
libupm-ads1x15.so.1:_ZN3upm7ADS101511getRawValueEj
libupm-ads1x15.so.1:_ZN3upm7ADS101512getNumInputsEv
libupm-ads1x15.so.1:_ZN3upm7ADS101513getModuleNameEv
libupm-ads1x15.so.1:_ZN3upm7ADS101513getMultiplierEv
libupm-ads1x15.so.1:_ZN3upm7ADS101519getResolutionInBitsEv
libupm-ads1x15.so.1:_ZN3upm7ADS10156setSPSENS0_13ADSSAMPLERATEE
libupm-ads1x15.so.1:_ZN3upm7ADS10158setDelayEv
libupm-ads1x15.so.1:_ZN3upm7ADS1015C1Eihf
libupm-ads1x15.so.1:_ZN3upm7ADS1015C2Eihf
libupm-ads1x15.so.1:_ZN3upm7ADS1015D0Ev
libupm-ads1x15.so.1:_ZN3upm7ADS1015D1Ev
libupm-ads1x15.so.1:_ZN3upm7ADS1015D2Ev
libupm-ads1x15.so.1:_ZN3upm7ADS111513getMultiplierEv
libupm-ads1x15.so.1:_ZN3upm7ADS11156setSPSENS0_11ADSDATARATEE
libupm-ads1x15.so.1:_ZN3upm7ADS11158setDelayEv
libupm-ads1x15.so.1:_ZN3upm7ADS1115C1Eih
libupm-ads1x15.so.1:_ZN3upm7ADS1115C2Eih
libupm-ads1x15.so.1:_ZN3upm7ADS1115D0Ev
libupm-ads1x15.so.1:_ZN3upm7ADS1115D1Ev
libupm-ads1x15.so.1:_ZN3upm7ADS1115D2Ev
libupm-ads1x15.so.1:_ZN3upm7ADS1X1510setCompPolEb
libupm-ads1x15.so.1:_ZN3upm7ADS1X1510setCompQueENS0_7ADSCOMPE
libupm-ads1x15.so.1:_ZN3upm7ADS1X1511setCompModeEb
libupm-ads1x15.so.1:_ZN3upm7ADS1X1512setCompLatchEb
libupm-ads1x15.so.1:_ZN3upm7ADS1X1513getLastSampleEi
libupm-ads1x15.so.1:_ZN3upm7ADS1X1513setContinuousEb
libupm-ads1x15.so.1:_ZN3upm7ADS1X1516getCurrentConfigEv
libupm-ads1x15.so.1:_ZN3upm7ADS1X1520updateConfigRegisterEtb
libupm-ads1x15.so.1:_ZN3upm7ADS1X156setSPSENS0_13ADSSAMPLERATEE
libupm-ads1x15.so.1:_ZN3upm7ADS1X157setGainENS0_7ADSGAINE
libupm-ads1x15.so.1:_ZN3upm7ADS1X158swapWordEt
libupm-ads1x15.so.1:_ZN3upm7ADS1X159getSampleENS0_10ADSMUXMODEE
libupm-ads1x15.so.1:_ZN3upm7ADS1X159getThreshENS0_9ADSTHRESHE
libupm-ads1x15.so.1:_ZN3upm7ADS1X159setThreshENS0_9ADSTHRESHEf
libupm-ads1x15.so.1:_ZN3upm7ADS1X15C1Eih
libupm-ads1x15.so.1:_ZN3upm7ADS1X15C2Eih
libupm-ads1x15.so.1:_ZN3upm7ADS1X15D0Ev
libupm-ads1x15.so.1:_ZN3upm7ADS1X15D1Ev
libupm-ads1x15.so.1:_ZN3upm7ADS1X15D2Ev
libupm-ads1x15.so.1:_ZThn56_N3upm7ADS101510getVoltageEj
libupm-ads1x15.so.1:_ZThn56_N3upm7ADS101511getRawValueEj
libupm-ads1x15.so.1:_ZThn56_N3upm7ADS101512getNumInputsEv
libupm-ads1x15.so.1:_ZThn56_N3upm7ADS101519getResolutionInBitsEv
libupm-ads1x15.so.1:_ZThn56_N3upm7ADS1015D0Ev
libupm-ads1x15.so.1:_ZThn56_N3upm7ADS1015D1Ev
libupm-ads1x15.so.1:_ZTv0_n24_N3upm7ADS101513getModuleNameEv
libupm-ads1x15.so.1:_ZTv0_n32_N3upm7ADS1015D0Ev
libupm-ads1x15.so.1:_ZTv0_n32_N3upm7ADS1015D1Ev
libupm-adxl335.so.1:_ZN3upm7ADXL33512accelerationEPfS1_S1_
libupm-adxl335.so.1:_ZN3upm7ADXL33512accelerationEv
libupm-adxl335.so.1:_ZN3upm7ADXL3356valuesEPiS1_S1_
libupm-adxl335.so.1:_ZN3upm7ADXL3356valuesEv
libupm-adxl335.so.1:_ZN3upm7ADXL3359calibrateEv
libupm-adxl335.so.1:_ZN3upm7ADXL335C1Eiiif
libupm-adxl335.so.1:_ZN3upm7ADXL335C2Eiiif
libupm-adxl335.so.1:_ZN3upm7ADXL335D1Ev
libupm-adxl335.so.1:_ZN3upm7ADXL335D2Ev
libupm-adxl345.so.1:_ZN3upm7Adxl34512getRawValuesEv
libupm-adxl345.so.1:_ZN3upm7Adxl34515getAccelerationEv
libupm-adxl345.so.1:_ZN3upm7Adxl3456updateEv
libupm-adxl345.so.1:_ZN3upm7Adxl3458getScaleEv
libupm-adxl345.so.1:_ZN3upm7Adxl345C1Ei
libupm-adxl345.so.1:_ZN3upm7Adxl345C2Ei
libupm-adxrs610.so.1:_ZN3upm8ADXRS61012getDataVoltsEv
libupm-adxrs610.so.1:_ZN3upm8ADXRS61014getTemperatureEv
libupm-adxrs610.so.1:_ZN3upm8ADXRS61018calibrateZeroPointEj
libupm-adxrs610.so.1:_ZN3upm8ADXRS61018getAngularVelocityEv
libupm-adxrs610.so.1:_ZN3upm8ADXRS61019getTemperatureVoltsEv
libupm-adxrs610.so.1:_ZN3upm8ADXRS610C1Eiif
libupm-adxrs610.so.1:_ZN3upm8ADXRS610C2Eiif
libupm-adxrs610.so.1:_ZN3upm8ADXRS610D1Ev
libupm-adxrs610.so.1:_ZN3upm8ADXRS610D2Ev
libupm-am2315.so.1:_ZN3upm6AM231510i2cReadRegEiPhi
libupm-am2315.so.1:_ZN3upm6AM231510testSensorEv
libupm-am2315.so.1:_ZN3upm6AM231511getHumidityEv
libupm-am2315.so.1:_ZN3upm6AM231511i2cWriteRegEhPhh
libupm-am2315.so.1:_ZN3upm6AM231512i2cReadReg_8Ei
libupm-am2315.so.1:_ZN3upm6AM231513i2cReadReg_16Ei
libupm-am2315.so.1:_ZN3upm6AM231513i2cReadReg_32Ei
libupm-am2315.so.1:_ZN3upm6AM231513i2cWriteReg_8Eih
libupm-am2315.so.1:_ZN3upm6AM231513update_valuesEv
libupm-am2315.so.1:_ZN3upm6AM231514getTemperatureEv
libupm-am2315.so.1:_ZN3upm6AM231514i2cWriteReg_16Eit
libupm-am2315.so.1:_ZN3upm6AM231514i2cWriteReg_32Eij
libupm-am2315.so.1:_ZN3upm6AM231515getTemperatureFEv
libupm-am2315.so.1:_ZN3upm6AM23155crc16EPhh
libupm-am2315.so.1:_ZN3upm6AM2315C1Eii
libupm-am2315.so.1:_ZN3upm6AM2315C2Eii
libupm-am2315.so.1:_ZN3upm6AM2315D1Ev
libupm-am2315.so.1:_ZN3upm6AM2315D2Ev
libupm-apa102.so.1:_ZN3upm6APA10210setAllLedsEhhhh
libupm-apa102.so.1:_ZN3upm6APA10211setBusSpeedEi
libupm-apa102.so.1:_ZN3upm6APA10216setLedBrightnessEth
libupm-apa102.so.1:_ZN3upm6APA10217setLedsBrightnessEtth
libupm-apa102.so.1:_ZN3upm6APA1024CSOnEv
libupm-apa102.so.1:_ZN3upm6APA1025CSOffEv
libupm-apa102.so.1:_ZN3upm6APA1026setLedEthhhh
libupm-apa102.so.1:_ZN3upm6APA1027setLedsEttPh
libupm-apa102.so.1:_ZN3upm6APA1027setLedsEtthhhh
libupm-apa102.so.1:_ZN3upm6APA1029pushStateEv
libupm-apa102.so.1:_ZN3upm6APA102C1Ethba
libupm-apa102.so.1:_ZN3upm6APA102C2Ethba
libupm-apa102.so.1:_ZN3upm6APA102D1Ev
libupm-apa102.so.1:_ZN3upm6APA102D2Ev
libupm-apds9002.so.1:_ZN3upm8APDS90025valueEv
libupm-apds9002.so.1:_ZN3upm8APDS9002C1Ei
libupm-apds9002.so.1:_ZN3upm8APDS9002C2Ei
libupm-apds9002.so.1:_ZN3upm8APDS9002D1Ev
libupm-apds9002.so.1:_ZN3upm8APDS9002D2Ev
libupm-apds9930.so.1:_ZN3upm8APDS993010getAmbientEv
libupm-apds9930.so.1:_ZN3upm8APDS993012getProximityEv
libupm-apds9930.so.1:_ZN3upm8APDS993015enableProximityEb
libupm-apds9930.so.1:_ZN3upm8APDS993017enableIlluminanceEb
libupm-apds9930.so.1:_ZN3upm8APDS9930C1Ei
libupm-apds9930.so.1:_ZN3upm8APDS9930C2Ei
libupm-apds9930.so.1:_ZN3upm8APDS9930D1Ev
libupm-apds9930.so.1:_ZN3upm8APDS9930D2Ev
libupm-at42qt1070.so.1:_ZN3upm10AT42QT107010readChipIDEv
libupm-at42qt1070.so.1:_ZN3upm10AT42QT107011getAKSGroupEh
libupm-at42qt1070.so.1:_ZN3upm10AT42QT107011setAKSGroupEhh
libupm-at42qt1070.so.1:_ZN3upm10AT42QT107011updateStateEv
libupm-at42qt1070.so.1:_ZN3upm10AT42QT10705resetEv
libupm-at42qt1070.so.1:_ZN3upm10AT42QT10706getAVEEh
libupm-at42qt1070.so.1:_ZN3upm10AT42QT10706setAVEEhh
libupm-at42qt1070.so.1:_ZN3upm10AT42QT10708readByteEh
libupm-at42qt1070.so.1:_ZN3upm10AT42QT10708readWordEh
libupm-at42qt1070.so.1:_ZN3upm10AT42QT10709calibrateEv
libupm-at42qt1070.so.1:_ZN3upm10AT42QT10709getLPModeEv
libupm-at42qt1070.so.1:_ZN3upm10AT42QT10709setLPModeEh
libupm-at42qt1070.so.1:_ZN3upm10AT42QT10709writeByteEhh
libupm-at42qt1070.so.1:_ZN3upm10AT42QT10709writeWordEht
libupm-at42qt1070.so.1:_ZN3upm10AT42QT1070C1Eih
libupm-at42qt1070.so.1:_ZN3upm10AT42QT1070C2Eih
libupm-at42qt1070.so.1:_ZN3upm10AT42QT1070D1Ev
libupm-at42qt1070.so.1:_ZN3upm10AT42QT1070D2Ev
libupm-bh1749.so.1:_ZN3upm6BH174910GetRgbGainEv
libupm-bh1749.so.1:_ZN3upm6BH174910InstallISRE16mraa_gpio_edge_tiPFvPvES2_
libupm-bh1749.so.1:_ZN3upm6BH174910SensorInitE15OPERATING_MODES10MEAS_TIMES9RGB_GAINS8IR_GAINS11INT_SOURCES
libupm-bh1749.so.1:_ZN3upm6BH174910SetRgbGainE9RGB_GAINS
libupm-bh1749.so.1:_ZN3upm6BH174911CheckWhoAmIEv
libupm-bh1749.so.1:_ZN3upm6BH174912SetIntSourceE11INT_SOURCES
libupm-bh1749.so.1:_ZN3upm6BH174913IsInterruptedEv
libupm-bh1749.so.1:_ZN3upm6BH174913RegistersDumpB5cxx11Ev
libupm-bh1749.so.1:_ZN3upm6BH174914ResetInterruptEv
libupm-bh1749.so.1:_ZN3upm6BH174915EnableInterruptEv
libupm-bh1749.so.1:_ZN3upm6BH174915GetMeasurementsEv
libupm-bh1749.so.1:_ZN3upm6BH174915GetThresholdLowEv
libupm-bh1749.so.1:_ZN3upm6BH174915SetThresholdLowEt
libupm-bh1749.so.1:_ZN3upm6BH174916DisableInterruptEv
libupm-bh1749.so.1:_ZN3upm6BH174916GetOperatingModeEv
libupm-bh1749.so.1:_ZN3upm6BH174916GetThresholdHighEv
libupm-bh1749.so.1:_ZN3upm6BH174916SetOperatingModeE15OPERATING_MODES
libupm-bh1749.so.1:_ZN3upm6BH174916SetThresholdHighEt
libupm-bh1749.so.1:_ZN3upm6BH174918GetMeasurementTimeEv
libupm-bh1749.so.1:_ZN3upm6BH174918IsInterruptEnabledEv
libupm-bh1749.so.1:_ZN3upm6BH174918SetMeasurementTimeE10MEAS_TIMES
libupm-bh1749.so.1:_ZN3upm6BH174922GetInterruptSourceCharEv
libupm-bh1749.so.1:_ZN3upm6BH17495GetIrEv
libupm-bh1749.so.1:_ZN3upm6BH17496EnableEv
libupm-bh1749.so.1:_ZN3upm6BH17496GetRedEv
libupm-bh1749.so.1:_ZN3upm6BH17497DisableEv
libupm-bh1749.so.1:_ZN3upm6BH17497GetBlueEv
libupm-bh1749.so.1:_ZN3upm6BH17498GetGeen2Ev
libupm-bh1749.so.1:_ZN3upm6BH17498GetGreenEv
libupm-bh1749.so.1:_ZN3upm6BH17499GetIrGainEv
libupm-bh1749.so.1:_ZN3upm6BH17499RemoveISREv
libupm-bh1749.so.1:_ZN3upm6BH17499SetIrGainE8IR_GAINS
libupm-bh1749.so.1:_ZN3upm6BH17499SoftResetEv
libupm-bh1749.so.1:_ZN3upm6BH1749C1Eii
libupm-bh1749.so.1:_ZN3upm6BH1749C2Eii
libupm-bh1749.so.1:_ZN3upm6BH1749D0Ev
libupm-bh1749.so.1:_ZN3upm6BH1749D1Ev
libupm-bh1749.so.1:_ZN3upm6BH1749D2Ev
libupm-bh1750.so.1:_ZN3upm6BH175011sendCommandEh
libupm-bh1750.so.1:_ZN3upm6BH17505resetEv
libupm-bh1750.so.1:_ZN3upm6BH17506getLuxEv
libupm-bh1750.so.1:_ZN3upm6BH17507powerUpEv
libupm-bh1750.so.1:_ZN3upm6BH17508readDataEv
libupm-bh1750.so.1:_ZN3upm6BH17509powerDownEv
libupm-bh1750.so.1:_ZN3upm6BH17509setOpmodeE16BH1750_OPMODES_T
libupm-bh1750.so.1:_ZN3upm6BH1750C1Eii16BH1750_OPMODES_T
libupm-bh1750.so.1:_ZN3upm6BH1750C2Eii16BH1750_OPMODES_T
libupm-bh1750.so.1:_ZN3upm6BH1750D1Ev
libupm-bh1750.so.1:_ZN3upm6BH1750D2Ev
libupm-bh1792.so.1:_ZN3upm6BH179210InstallISRE16mraa_gpio_edge_tiPFvPvES2_
libupm-bh1792.so.1:_ZN3upm6BH179210InstallISREiPFvPvES1_
libupm-bh1792.so.1:_ZN3upm6BH179211CheckWhoAmIEv
libupm-bh1792.so.1:_ZN3upm6BH179211GetFifoDataEv
libupm-bh1792.so.1:_ZN3upm6BH179211GetFifoSizeEv
libupm-bh1792.so.1:_ZN3upm6BH179212GetGreenDataEv
libupm-bh1792.so.1:_ZN3upm6BH179213RegistersDumpB5cxx11Ev
libupm-bh1792.so.1:_ZN3upm6BH179214ClearInterruptEv
libupm-bh1792.so.1:_ZN3upm6BH179214EnableSyncModeEtt
libupm-bh1792.so.1:_ZN3upm6BH179214GetIrThresholdEv
libupm-bh1792.so.1:_ZN3upm6BH179214SetIrThresholdEt
libupm-bh1792.so.1:_ZN3upm6BH179215DiscardFifoDataEv
libupm-bh1792.so.1:_ZN3upm6BH179215GetIrLedCurrentEv
libupm-bh1792.so.1:_ZN3upm6BH179215SetIrLedCurrentEt
libupm-bh1792.so.1:_ZN3upm6BH179215StopMeasurementEv
libupm-bh1792.so.1:_ZN3upm6BH179216DisableInterruptEv
libupm-bh1792.so.1:_ZN3upm6BH179216EnableSingleModeE9LED_TYPESt
libupm-bh1792.so.1:_ZN3upm6BH179216StartMeasurementEv
libupm-bh1792.so.1:_ZN3upm6BH179217EnableNonSyncModeEtt
libupm-bh1792.so.1:_ZN3upm6BH179218RestartMeasurementEv
libupm-bh1792.so.1:_ZN3upm6BH179219GetGreenLedsCurrentEv
libupm-bh1792.so.1:_ZN3upm6BH179219SetGreenLedsCurrentEt
libupm-bh1792.so.1:_ZN3upm6BH179220GetMeasurementTimeMSEv
libupm-bh1792.so.1:_ZN3upm6BH17929GetIrDataEv
libupm-bh1792.so.1:_ZN3upm6BH17929IsEnabledEv
libupm-bh1792.so.1:_ZN3upm6BH17929RemoveISREv
libupm-bh1792.so.1:_ZN3upm6BH17929SoftResetEv
libupm-bh1792.so.1:_ZN3upm6BH1792C1Eii
libupm-bh1792.so.1:_ZN3upm6BH1792C2Eii
libupm-bh1792.so.1:_ZN3upm6BH1792D0Ev
libupm-bh1792.so.1:_ZN3upm6BH1792D1Ev
libupm-bh1792.so.1:_ZN3upm6BH1792D2Ev
libupm-biss0001.so.1:_ZN3upm8BISS00015valueEv
libupm-biss0001.so.1:_ZN3upm8BISS0001C1Ej
libupm-biss0001.so.1:_ZN3upm8BISS0001C2Ej
libupm-biss0001.so.1:_ZN3upm8BISS0001D1Ev
libupm-biss0001.so.1:_ZN3upm8BISS0001D2Ev
libupm-bma220.so.1:_ZN3upm6BMA22010enableAxesEbbb
libupm-bma220.so.1:_ZN3upm6BMA22010installISREiN4mraa4EdgeEPFvPvES3_
libupm-bma220.so.1:_ZN3upm6BMA22012get_gpioIntrEv
libupm-bma220.so.1:_ZN3upm6BMA22012uninstallISREv
libupm-bma220.so.1:_ZN3upm6BMA22014setTapDurationEh
libupm-bma220.so.1:_ZN3upm6BMA22015enableTapFilterEb
libupm-bma220.so.1:_ZN3upm6BMA22015getChipRevisionEv
libupm-bma220.so.1:_ZN3upm6BMA22015resetInterruptsEv
libupm-bma220.so.1:_ZN3upm6BMA22015setFilterConfigENS0_15FILTER_CONFIG_TE
libupm-bma220.so.1:_ZN3upm6BMA22015setLowGDurationEh
libupm-bma220.so.1:_ZN3upm6BMA22015setSerialHighBWEb
libupm-bma220.so.1:_ZN3upm6BMA22015setTapThresholdEh
libupm-bma220.so.1:_ZN3upm6BMA22016getAccelerometerEPfS1_S1_
libupm-bma220.so.1:_ZN3upm6BMA22016getAccelerometerEv
libupm-bma220.so.1:_ZN3upm6BMA22016setHighGDurationEh
libupm-bma220.so.1:_ZN3upm6BMA22016setLowGThresholdEh
libupm-bma220.so.1:_ZN3upm6BMA22016setSleepDurationENS0_11SLEEP_DUR_TE
libupm-bma220.so.1:_ZN3upm6BMA22016setSlopeDurationEh
libupm-bma220.so.1:_ZN3upm6BMA22017enableSlopeFilterEb
libupm-bma220.so.1:_ZN3upm6BMA22017setHighGThresholdEh
libupm-bma220.so.1:_ZN3upm6BMA22017setInterruptLatchENS0_13CONFIG2_LAT_TE
libupm-bma220.so.1:_ZN3upm6BMA22017setLowGHysteresisEh
libupm-bma220.so.1:_ZN3upm6BMA22017setSlopeThresholdEh
libupm-bma220.so.1:_ZN3upm6BMA22018setHighGHysteresisEh
libupm-bma220.so.1:_ZN3upm6BMA22019getInterruptStatus1Ev
libupm-bma220.so.1:_ZN3upm6BMA22019getInterruptStatus2Ev
libupm-bma220.so.1:_ZN3upm6BMA22019updateAccelerometerEv
libupm-bma220.so.1:_ZN3upm6BMA22020getInterruptEnables1Ev
libupm-bma220.so.1:_ZN3upm6BMA22020getInterruptEnables2Ev
libupm-bma220.so.1:_ZN3upm6BMA22020setInterruptEnables1Eh
libupm-bma220.so.1:_ZN3upm6BMA22020setInterruptEnables2Eh
libupm-bma220.so.1:_ZN3upm6BMA22021setAccelerometerScaleENS0_11FSL_RANGE_TE
libupm-bma220.so.1:_ZN3upm6BMA2205sleepEb
libupm-bma220.so.1:_ZN3upm6BMA2206updateEv
libupm-bma220.so.1:_ZN3upm6BMA2207readRegEh
libupm-bma220.so.1:_ZN3upm6BMA2207suspendEv
libupm-bma220.so.1:_ZN3upm6BMA2208writeRegEhh
libupm-bma220.so.1:_ZN3upm6BMA2209getChipIDEv
libupm-bma220.so.1:_ZN3upm6BMA2209getOrientEv
libupm-bma220.so.1:_ZN3upm6BMA2209softResetEv
libupm-bma220.so.1:_ZN3upm6BMA220C1Eih
libupm-bma220.so.1:_ZN3upm6BMA220C2Eih
libupm-bma220.so.1:_ZN3upm6BMA220D1Ev
libupm-bma220.so.1:_ZN3upm6BMA220D2Ev
libupm-bma250e.so.1:_ZN3upm7BMA250E10enableFIFOEb
libupm-bma250e.so.1:_ZN3upm7BMA250E10fifoConfigE19BMA250E_FIFO_MODE_T23BMA250E_FIFO_DATA_SEL_T
libupm-bma250e.so.1:_ZN3upm7BMA250E10installISRE24BMA250E_INTERRUPT_PINS_TiN4mraa4EdgeEPFvPvES4_
libupm-bma250e.so.1:_ZN3upm7BMA250E11setSelfTestEbb24BMA250E_SELFTTEST_AXIS_T
libupm-bma250e.so.1:_ZN3upm7BMA250E12setBandwidthE12BMA250E_BW_T
libupm-bma250e.so.1:_ZN3upm7BMA250E12setPowerModeE20BMA250E_POWER_MODE_T
libupm-bma250e.so.1:_ZN3upm7BMA250E12uninstallISRE24BMA250E_INTERRUPT_PINS_T
libupm-bma250e.so.1:_ZN3upm7BMA250E14getTemperatureEb
libupm-bma250e.so.1:_ZN3upm7BMA250E15getInterruptSrcEv
libupm-bma250e.so.1:_ZN3upm7BMA250E15setInterruptSrcEh
libupm-bma250e.so.1:_ZN3upm7BMA250E16fifoSetWatermarkEi
libupm-bma250e.so.1:_ZN3upm7BMA250E16getAccelerometerEPfS1_S1_
libupm-bma250e.so.1:_ZN3upm7BMA250E16getAccelerometerEv
libupm-bma250e.so.1:_ZN3upm7BMA250E16getInterruptMap0Ev
libupm-bma250e.so.1:_ZN3upm7BMA250E16getInterruptMap1Ev
libupm-bma250e.so.1:_ZN3upm7BMA250E16getInterruptMap2Ev
libupm-bma250e.so.1:_ZN3upm7BMA250E16setInterruptMap0Eh
libupm-bma250e.so.1:_ZN3upm7BMA250E16setInterruptMap1Eh
libupm-bma250e.so.1:_ZN3upm7BMA250E16setInterruptMap2Eh
libupm-bma250e.so.1:_ZN3upm7BMA250E16setLowPowerMode2Ev
libupm-bma250e.so.1:_ZN3upm7BMA250E19getInterruptEnable0Ev
libupm-bma250e.so.1:_ZN3upm7BMA250E19getInterruptEnable1Ev
libupm-bma250e.so.1:_ZN3upm7BMA250E19getInterruptEnable2Ev
libupm-bma250e.so.1:_ZN3upm7BMA250E19getInterruptStatus0Ev
libupm-bma250e.so.1:_ZN3upm7BMA250E19getInterruptStatus1Ev
libupm-bma250e.so.1:_ZN3upm7BMA250E19getInterruptStatus2Ev
libupm-bma250e.so.1:_ZN3upm7BMA250E19setInterruptEnable0Eh
libupm-bma250e.so.1:_ZN3upm7BMA250E19setInterruptEnable1Eh
libupm-bma250e.so.1:_ZN3upm7BMA250E19setInterruptEnable2Eh
libupm-bma250e.so.1:_ZN3upm7BMA250E21clearInterruptLatchesEv
libupm-bma250e.so.1:_ZN3upm7BMA250E21enableOutputFilteringEb
libupm-bma250e.so.1:_ZN3upm7BMA250E23enableRegisterShadowingEb
libupm-bma250e.so.1:_ZN3upm7BMA250E23getInterruptStatus3BitsEv
libupm-bma250e.so.1:_ZN3upm7BMA250E25getInterruptLatchBehaviorEv
libupm-bma250e.so.1:_ZN3upm7BMA250E25getInterruptOutputControlEv
libupm-bma250e.so.1:_ZN3upm7BMA250E25setInterruptLatchBehaviorE19BMA250E_RST_LATCH_T
libupm-bma250e.so.1:_ZN3upm7BMA250E25setInterruptOutputControlEh
libupm-bma250e.so.1:_ZN3upm7BMA250E30getInterruptStatus3OrientationEv
libupm-bma250e.so.1:_ZN3upm7BMA250E4initE20BMA250E_POWER_MODE_T15BMA250E_RANGE_T12BMA250E_BW_T
libupm-bma250e.so.1:_ZN3upm7BMA250E5resetEv
libupm-bma250e.so.1:_ZN3upm7BMA250E6updateEv
libupm-bma250e.so.1:_ZN3upm7BMA250E7readRegEh
libupm-bma250e.so.1:_ZN3upm7BMA250E8readRegsEhPhi
libupm-bma250e.so.1:_ZN3upm7BMA250E8setRangeE15BMA250E_RANGE_T
libupm-bma250e.so.1:_ZN3upm7BMA250E8writeRegEhh
libupm-bma250e.so.1:_ZN3upm7BMA250E9getChipIDEv
libupm-bma250e.so.1:_ZN3upm7BMA250EC1Eiii
libupm-bma250e.so.1:_ZN3upm7BMA250EC2Eiii
libupm-bma250e.so.1:_ZN3upm7BMA250ED1Ev
libupm-bma250e.so.1:_ZN3upm7BMA250ED2Ev
libupm-bmg160.so.1:_ZN3upm6BMG16010enableFIFOEb
libupm-bmg160.so.1:_ZN3upm6BMG16010fifoConfigE18BMG160_FIFO_MODE_T22BMG160_FIFO_DATA_SEL_T
libupm-bmg160.so.1:_ZN3upm6BMG16010installISRE23BMG160_INTERRUPT_PINS_TiN4mraa4EdgeEPFvPvES4_
libupm-bmg160.so.1:_ZN3upm6BMG16012getGyroscopeEPfS1_S1_
libupm-bmg160.so.1:_ZN3upm6BMG16012getGyroscopeEv
libupm-bmg160.so.1:_ZN3upm6BMG16012setBandwidthE11BMG160_BW_T
libupm-bmg160.so.1:_ZN3upm6BMG16012setPowerModeE19BMG160_POWER_MODE_T
libupm-bmg160.so.1:_ZN3upm6BMG16012uninstallISRE23BMG160_INTERRUPT_PINS_T
libupm-bmg160.so.1:_ZN3upm6BMG16014getTemperatureEb
libupm-bmg160.so.1:_ZN3upm6BMG16015getInterruptSrcEv
libupm-bmg160.so.1:_ZN3upm6BMG16015setInterruptSrcEh
libupm-bmg160.so.1:_ZN3upm6BMG16016fifoSetWatermarkEi
libupm-bmg160.so.1:_ZN3upm6BMG16016getInterruptMap0Ev
libupm-bmg160.so.1:_ZN3upm6BMG16016getInterruptMap1Ev
libupm-bmg160.so.1:_ZN3upm6BMG16016setInterruptMap0Eh
libupm-bmg160.so.1:_ZN3upm6BMG16016setInterruptMap1Eh
libupm-bmg160.so.1:_ZN3upm6BMG16019getInterruptEnable0Ev
libupm-bmg160.so.1:_ZN3upm6BMG16019getInterruptStatus0Ev
libupm-bmg160.so.1:_ZN3upm6BMG16019getInterruptStatus1Ev
libupm-bmg160.so.1:_ZN3upm6BMG16019getInterruptStatus2Ev
libupm-bmg160.so.1:_ZN3upm6BMG16019getInterruptStatus3Ev
libupm-bmg160.so.1:_ZN3upm6BMG16019setInterruptEnable0Eh
libupm-bmg160.so.1:_ZN3upm6BMG16021clearInterruptLatchesEv
libupm-bmg160.so.1:_ZN3upm6BMG16021enableOutputFilteringEb
libupm-bmg160.so.1:_ZN3upm6BMG16023enableRegisterShadowingEb
libupm-bmg160.so.1:_ZN3upm6BMG16025getInterruptLatchBehaviorEv
libupm-bmg160.so.1:_ZN3upm6BMG16025getInterruptOutputControlEv
libupm-bmg160.so.1:_ZN3upm6BMG16025setInterruptLatchBehaviorE18BMG160_RST_LATCH_T
libupm-bmg160.so.1:_ZN3upm6BMG16025setInterruptOutputControlEh
libupm-bmg160.so.1:_ZN3upm6BMG1604initE19BMG160_POWER_MODE_T14BMG160_RANGE_T11BMG160_BW_T
libupm-bmg160.so.1:_ZN3upm6BMG1605resetEv
libupm-bmg160.so.1:_ZN3upm6BMG1606updateEv
libupm-bmg160.so.1:_ZN3upm6BMG1607readRegEh
libupm-bmg160.so.1:_ZN3upm6BMG1608readRegsEhPhi
libupm-bmg160.so.1:_ZN3upm6BMG1608setRangeE14BMG160_RANGE_T
libupm-bmg160.so.1:_ZN3upm6BMG1608writeRegEhh
libupm-bmg160.so.1:_ZN3upm6BMG1609getChipIDEv
libupm-bmg160.so.1:_ZN3upm6BMG160C1Eiii
libupm-bmg160.so.1:_ZN3upm6BMG160C2Eiii
libupm-bmg160.so.1:_ZN3upm6BMG160D1Ev
libupm-bmg160.so.1:_ZN3upm6BMG160D2Ev
libupm-bmi160.so.1:_ZN3upm6BMI16012getGyroscopeEPfS1_S1_
libupm-bmi160.so.1:_ZN3upm6BMI16012getGyroscopeEv
libupm-bmi160.so.1:_ZN3upm6BMI16013getSensorTimeEv
libupm-bmi160.so.1:_ZN3upm6BMI16015getMagnetometerEPfS1_S1_
libupm-bmi160.so.1:_ZN3upm6BMI16015getMagnetometerEv
libupm-bmi160.so.1:_ZN3upm6BMI16016getAccelerometerEPfS1_S1_
libupm-bmi160.so.1:_ZN3upm6BMI16016getAccelerometerEv
libupm-bmi160.so.1:_ZN3upm6BMI16017setGyroscopeScaleE19BMI160_GYRO_RANGE_T
libupm-bmi160.so.1:_ZN3upm6BMI16018enableMagnetometerEb
libupm-bmi160.so.1:_ZN3upm6BMI16021setAccelerometerScaleE18BMI160_ACC_RANGE_T
libupm-bmi160.so.1:_ZN3upm6BMI1606updateEv
libupm-bmi160.so.1:_ZN3upm6BMI1607busReadB5cxx11Eiii
libupm-bmi160.so.1:_ZN3upm6BMI1608busWriteEiiNSt7__cxx1112basic_stringIcSt11char_traitsIcESaIcEEE
libupm-bmi160.so.1:_ZN3upm6BMI160C1Eiiib
libupm-bmi160.so.1:_ZN3upm6BMI160C2Eiiib
libupm-bmi160.so.1:_ZN3upm6BMI160D1Ev
libupm-bmi160.so.1:_ZN3upm6BMI160D2Ev
libupm-bmm150.so.1:_ZN3upm6BMM15010installISRE23BMM150_INTERRUPT_PINS_TiN4mraa4EdgeEPFvPvES4_
libupm-bmm150.so.1:_ZN3upm6BMM15011setPowerBitEb
libupm-bmm150.so.1:_ZN3upm6BMM15012uninstallISRE23BMM150_INTERRUPT_PINS_T
libupm-bmm150.so.1:_ZN3upm6BMM15013setPresetModeE22BMM150_USAGE_PRESETS_T
libupm-bmm150.so.1:_ZN3upm6BMM15015getMagnetometerEPfS1_S1_
libupm-bmm150.so.1:_ZN3upm6BMM15015getMagnetometerEv
libupm-bmm150.so.1:_ZN3upm6BMM15015setRepetitionsZEh
libupm-bmm150.so.1:_ZN3upm6BMM15016setRepetitionsXYEh
libupm-bmm150.so.1:_ZN3upm6BMM15017setOutputDataRateE18BMM150_DATA_RATE_T
libupm-bmm150.so.1:_ZN3upm6BMM15018getInterruptConfigEv
libupm-bmm150.so.1:_ZN3upm6BMM15018getInterruptEnableEv
libupm-bmm150.so.1:_ZN3upm6BMM15018getInterruptStatusEv
libupm-bmm150.so.1:_ZN3upm6BMM15018setInterruptConfigEh
libupm-bmm150.so.1:_ZN3upm6BMM15018setInterruptEnableEh
libupm-bmm150.so.1:_ZN3upm6BMM1504initE22BMM150_USAGE_PRESETS_T
libupm-bmm150.so.1:_ZN3upm6BMM1505resetEv
libupm-bmm150.so.1:_ZN3upm6BMM1506updateEv
libupm-bmm150.so.1:_ZN3upm6BMM1507readRegEh
libupm-bmm150.so.1:_ZN3upm6BMM1508readRegsEhPhi
libupm-bmm150.so.1:_ZN3upm6BMM1508writeRegEhh
libupm-bmm150.so.1:_ZN3upm6BMM1509getChipIDEv
libupm-bmm150.so.1:_ZN3upm6BMM1509getOpmodeEv
libupm-bmm150.so.1:_ZN3upm6BMM1509setOpmodeE23BMM150_OPERATION_MODE_T
libupm-bmm150.so.1:_ZN3upm6BMM150C1Eiii
libupm-bmm150.so.1:_ZN3upm6BMM150C2Eiii
libupm-bmm150.so.1:_ZN3upm6BMM150D1Ev
libupm-bmm150.so.1:_ZN3upm6BMM150D2Ev
libupm-bmp280.so.1:_ZN3upm6BME28011getHumidityEv
libupm-bmp280.so.1:_ZN3upm6BME28025setOversampleRateHumidityE15BME280_OSRS_H_T
libupm-bmp280.so.1:_ZN3upm6BME280C1Eiii
libupm-bmp280.so.1:_ZN3upm6BME280C2Eiii
libupm-bmp280.so.1:_ZN3upm6BME280D0Ev
libupm-bmp280.so.1:_ZN3upm6BME280D1Ev
libupm-bmp280.so.1:_ZN3upm6BME280D2Ev
libupm-bmp280.so.1:_ZN3upm6BMP28011getAltitudeEv
libupm-bmp280.so.1:_ZN3upm6BMP28011getPressureEv
libupm-bmp280.so.1:_ZN3upm6BMP28012setUsageModeE19BMP280_USAGE_MODE_T
libupm-bmp280.so.1:_ZN3upm6BMP28014getTemperatureEb
libupm-bmp280.so.1:_ZN3upm6BMP28014setMeasureModeE14BMP280_MODES_T
libupm-bmp280.so.1:_ZN3upm6BMP28015setTimerStandbyE13BMP280_T_SB_T
libupm-bmp280.so.1:_ZN3upm6BMP28020setSeaLevelPreassureEf
libupm-bmp280.so.1:_ZN3upm6BMP28025setOversampleRatePressureE15BMP280_OSRS_P_T
libupm-bmp280.so.1:_ZN3upm6BMP28028setOversampleRateTemperatureE15BMP280_OSRS_T_T
libupm-bmp280.so.1:_ZN3upm6BMP2805resetEv
libupm-bmp280.so.1:_ZN3upm6BMP2806updateEv
libupm-bmp280.so.1:_ZN3upm6BMP2807readRegEh
libupm-bmp280.so.1:_ZN3upm6BMP2808readRegsEhPhi
libupm-bmp280.so.1:_ZN3upm6BMP2808writeRegEhh
libupm-bmp280.so.1:_ZN3upm6BMP2809getChipIDEv
libupm-bmp280.so.1:_ZN3upm6BMP2809getStatusEv
libupm-bmp280.so.1:_ZN3upm6BMP2809setFilterE15BMP280_FILTER_T
libupm-bmp280.so.1:_ZN3upm6BMP280C1Eiii
libupm-bmp280.so.1:_ZN3upm6BMP280C2Eiii
libupm-bmp280.so.1:_ZN3upm6BMP280D0Ev
libupm-bmp280.so.1:_ZN3upm6BMP280D1Ev
libupm-bmp280.so.1:_ZN3upm6BMP280D2Ev
libupm-bmp280.so.1:_ZThn24_N3upm6BME280D0Ev
libupm-bmp280.so.1:_ZThn24_N3upm6BME280D1Ev
libupm-bmp280.so.1:_ZThn8_N3upm6BME280D0Ev
libupm-bmp280.so.1:_ZThn8_N3upm6BME280D1Ev
libupm-bmp280.so.1:_ZThn8_N3upm6BMP280D0Ev
libupm-bmp280.so.1:_ZThn8_N3upm6BMP280D1Ev
libupm-bmp280.so.1:_ZTv0_n32_N3upm6BME280D0Ev
libupm-bmp280.so.1:_ZTv0_n32_N3upm6BME280D1Ev
libupm-bmp280.so.1:_ZTv0_n32_N3upm6BMP280D0Ev
libupm-bmp280.so.1:_ZTv0_n32_N3upm6BMP280D1Ev
libupm-bmpx8x.so.1:_ZN3upm6BMPX8X11getAltitudeEi
libupm-bmpx8x.so.1:_ZN3upm6BMPX8X11getPressureEv
libupm-bmpx8x.so.1:_ZN3upm6BMPX8X14getTemperatureEv
libupm-bmpx8x.so.1:_ZN3upm6BMPX8X15setOversamplingE12BMPX8X_OSS_T
libupm-bmpx8x.so.1:_ZN3upm6BMPX8X19getSealevelPressureEf
libupm-bmpx8x.so.1:_ZN3upm6BMPX8X4initE12BMPX8X_OSS_T
libupm-bmpx8x.so.1:_ZN3upm6BMPX8X5resetEv
libupm-bmpx8x.so.1:_ZN3upm6BMPX8X6updateEv
libupm-bmpx8x.so.1:_ZN3upm6BMPX8X7readRegEh
libupm-bmpx8x.so.1:_ZN3upm6BMPX8X8readRegsEhPhi
libupm-bmpx8x.so.1:_ZN3upm6BMPX8X8writeRegEhh
libupm-bmpx8x.so.1:_ZN3upm6BMPX8XC1Eii
libupm-bmpx8x.so.1:_ZN3upm6BMPX8XC2Eii
libupm-bmpx8x.so.1:_ZN3upm6BMPX8XD0Ev
libupm-bmpx8x.so.1:_ZN3upm6BMPX8XD1Ev
libupm-bmpx8x.so.1:_ZN3upm6BMPX8XD2Ev
libupm-bmpx8x.so.1:_ZThn8_N3upm6BMPX8XD0Ev
libupm-bmpx8x.so.1:_ZThn8_N3upm6BMPX8XD1Ev
libupm-bmpx8x.so.1:_ZTv0_n32_N3upm6BMPX8XD0Ev
libupm-bmpx8x.so.1:_ZTv0_n32_N3upm6BMPX8XD1Ev
libupm-bmx055.so.1:_ZN3upm6BMC15015getMagnetometerEPfS1_S1_
libupm-bmx055.so.1:_ZN3upm6BMC15015getMagnetometerEv
libupm-bmx055.so.1:_ZN3upm6BMC15016getAccelerometerEPfS1_S1_
libupm-bmx055.so.1:_ZN3upm6BMC15016getAccelerometerEv
libupm-bmx055.so.1:_ZN3upm6BMC15016initMagnetometerE22BMM150_USAGE_PRESETS_T
libupm-bmx055.so.1:_ZN3upm6BMC15017initAccelerometerE20BMA250E_POWER_MODE_T15BMA250E_RANGE_T12BMA250E_BW_T
libupm-bmx055.so.1:_ZN3upm6BMC1506updateEv
libupm-bmx055.so.1:_ZN3upm6BMC150C1Eiiiiii
libupm-bmx055.so.1:_ZN3upm6BMC150C2Eiiiiii
libupm-bmx055.so.1:_ZN3upm6BMC150D1Ev
libupm-bmx055.so.1:_ZN3upm6BMC150D2Ev
libupm-bmx055.so.1:_ZN3upm6BMI05512getGyroscopeEPfS1_S1_
libupm-bmx055.so.1:_ZN3upm6BMI05512getGyroscopeEv
libupm-bmx055.so.1:_ZN3upm6BMI05513initGyroscopeE19BMG160_POWER_MODE_T14BMG160_RANGE_T11BMG160_BW_T
libupm-bmx055.so.1:_ZN3upm6BMI05516getAccelerometerEPfS1_S1_
libupm-bmx055.so.1:_ZN3upm6BMI05516getAccelerometerEv
libupm-bmx055.so.1:_ZN3upm6BMI05517initAccelerometerE20BMA250E_POWER_MODE_T15BMA250E_RANGE_T12BMA250E_BW_T
libupm-bmx055.so.1:_ZN3upm6BMI0556updateEv
libupm-bmx055.so.1:_ZN3upm6BMI055C1Eiiiiii
libupm-bmx055.so.1:_ZN3upm6BMI055C2Eiiiiii
libupm-bmx055.so.1:_ZN3upm6BMI055D1Ev
libupm-bmx055.so.1:_ZN3upm6BMI055D2Ev
libupm-bmx055.so.1:_ZN3upm6BMX05512getGyroscopeEPfS1_S1_
libupm-bmx055.so.1:_ZN3upm6BMX05512getGyroscopeEv
libupm-bmx055.so.1:_ZN3upm6BMX05513initGyroscopeE19BMG160_POWER_MODE_T14BMG160_RANGE_T11BMG160_BW_T
libupm-bmx055.so.1:_ZN3upm6BMX05515getMagnetometerEPfS1_S1_
libupm-bmx055.so.1:_ZN3upm6BMX05515getMagnetometerEv
libupm-bmx055.so.1:_ZN3upm6BMX05516getAccelerometerEPfS1_S1_
libupm-bmx055.so.1:_ZN3upm6BMX05516getAccelerometerEv
libupm-bmx055.so.1:_ZN3upm6BMX05516initMagnetometerE22BMM150_USAGE_PRESETS_T
libupm-bmx055.so.1:_ZN3upm6BMX05517initAccelerometerE20BMA250E_POWER_MODE_T15BMA250E_RANGE_T12BMA250E_BW_T
libupm-bmx055.so.1:_ZN3upm6BMX0556updateEv
libupm-bmx055.so.1:_ZN3upm6BMX055C1Eiiiiiiiii
libupm-bmx055.so.1:_ZN3upm6BMX055C2Eiiiiiiiii
libupm-bmx055.so.1:_ZN3upm6BMX055D1Ev
libupm-bmx055.so.1:_ZN3upm6BMX055D2Ev
libupm-bno055.so.1:_ZN3upm6BNO05510getSWRevIDEv
libupm-bno055.so.1:_ZN3upm6BNO05510installISREi16mraa_gpio_edge_tPFvPvES2_
libupm-bno055.so.1:_ZN3upm6BNO05511resetSystemEv
libupm-bno055.so.1:_ZN3upm6BNO05512getGyroscopeEPfS1_S1_
libupm-bno055.so.1:_ZN3upm6BNO05512getGyroscopeEv
libupm-bno055.so.1:_ZN3upm6BNO05512uninstallISREv
libupm-bno055.so.1:_ZN3upm6BNO05513setEulerUnitsEb
libupm-bno055.so.1:_ZN3upm6BNO05514getEulerAnglesEPfS1_S1_
libupm-bno055.so.1:_ZN3upm6BNO05514getEulerAnglesEv
libupm-bno055.so.1:_ZN3upm6BNO05514getQuaternionsEPfS1_S1_S1_
libupm-bno055.so.1:_ZN3upm6BNO05514getQuaternionsEv
libupm-bno055.so.1:_ZN3upm6BNO05514getSystemErrorEv
libupm-bno055.so.1:_ZN3upm6BNO05514getTemperatureEb
libupm-bno055.so.1:_ZN3upm6BNO05515getBootLoaderIDEv
libupm-bno055.so.1:_ZN3upm6BNO05515getMagnetometerEPfS1_S1_
libupm-bno055.so.1:_ZN3upm6BNO05515getMagnetometerEv
libupm-bno055.so.1:_ZN3upm6BNO05515getSystemStatusEv
libupm-bno055.so.1:_ZN3upm6BNO05516getAccelerometerEPfS1_S1_
libupm-bno055.so.1:_ZN3upm6BNO05516getAccelerometerEv
libupm-bno055.so.1:_ZN3upm6BNO05516getInterruptMaskEv
libupm-bno055.so.1:_ZN3upm6BNO05516setClockExternalEb
libupm-bno055.so.1:_ZN3upm6BNO05516setInterruptMaskEh
libupm-bno055.so.1:_ZN3upm6BNO05516setOperationModeE24BNO055_OPERATION_MODES_T
libupm-bno055.so.1:_ZN3upm6BNO05517getGravityVectorsEPfS1_S1_
libupm-bno055.so.1:_ZN3upm6BNO05517getGravityVectorsEv
libupm-bno055.so.1:_ZN3upm6BNO05517isFullyCalibratedEv
libupm-bno055.so.1:_ZN3upm6BNO05517setGyroscopeUnitsEb
libupm-bno055.so.1:_ZN3upm6BNO05518getInterruptEnableEv
libupm-bno055.so.1:_ZN3upm6BNO05518getInterruptStatusEv
libupm-bno055.so.1:_ZN3upm6BNO05518setGyroscopeConfigE18BNO055_GYR_RANGE_T15BNO055_GYR_BW_T23BNO055_GYR_POWER_MODE_T
libupm-bno055.so.1:_ZN3upm6BNO05518setInterruptEnableEh
libupm-bno055.so.1:_ZN3upm6BNO05519readCalibrationDataEv
libupm-bno055.so.1:_ZN3upm6BNO05520getCalibrationStatusEPiS1_S1_S1_
libupm-bno055.so.1:_ZN3upm6BNO05520getCalibrationStatusEv
libupm-bno055.so.1:_ZN3upm6BNO05520resetInterruptStatusEv
libupm-bno055.so.1:_ZN3upm6BNO05520setTemperatureSourceE21BNO055_TEMP_SOURCES_T
libupm-bno055.so.1:_ZN3upm6BNO05520writeCalibrationDataESt6vectorIhSaIhEE
libupm-bno055.so.1:_ZN3upm6BNO05521getLinearAccelerationEPfS1_S1_
libupm-bno055.so.1:_ZN3upm6BNO05521getLinearAccelerationEv
libupm-bno055.so.1:_ZN3upm6BNO05521setAccelerationConfigE18BNO055_ACC_RANGE_T15BNO055_ACC_BW_T21BNO055_ACC_PWR_MODE_T
libupm-bno055.so.1:_ZN3upm6BNO05521setAccelerometerUnitsEb
libupm-bno055.so.1:_ZN3upm6BNO05521setMagnetometerConfigE16BNO055_MAG_ODR_T16BNO055_MAG_OPR_T18BNO055_MAG_POWER_T
libupm-bno055.so.1:_ZN3upm6BNO0556updateEv
libupm-bno055.so.1:_ZN3upm6BNO0557readRegEh
libupm-bno055.so.1:_ZN3upm6BNO0557setPageEhb
libupm-bno055.so.1:_ZN3upm6BNO0558getACCIDEv
libupm-bno055.so.1:_ZN3upm6BNO0558getGYRIDEv
libupm-bno055.so.1:_ZN3upm6BNO0558getMAGIDEv
libupm-bno055.so.1:_ZN3upm6BNO0558readRegsEhPhi
libupm-bno055.so.1:_ZN3upm6BNO0558writeRegEhh
libupm-bno055.so.1:_ZN3upm6BNO0559getChipIDEv
libupm-bno055.so.1:_ZN3upm6BNO0559writeRegsEhPhi
libupm-bno055.so.1:_ZN3upm6BNO055C1Eih
libupm-bno055.so.1:_ZN3upm6BNO055C2Eih
libupm-bno055.so.1:_ZN3upm6BNO055D0Ev
libupm-bno055.so.1:_ZN3upm6BNO055D1Ev
libupm-bno055.so.1:_ZN3upm6BNO055D2Ev
libupm-button.so.1:_ZN3upm6Button10installISREN4mraa4EdgeEPFvPvES3_
libupm-button.so.1:_ZN3upm6Button12uninstallISREv
libupm-button.so.1:_ZN3upm6Button4nameB5cxx11Ev
libupm-button.so.1:_ZN3upm6Button5valueEv
libupm-button.so.1:_ZN3upm6ButtonC1Ej
libupm-button.so.1:_ZN3upm6ButtonC2Ej
libupm-button.so.1:_ZN3upm6ButtonD1Ev
libupm-button.so.1:_ZN3upm6ButtonD2Ev
libupm-buzzer.so.1:_ZN3upm6Buzzer9getVolumeEv
libupm-buzzer.so.1:_ZN3upm6Buzzer9playSoundEii
libupm-buzzer.so.1:_ZN3upm6Buzzer9setVolumeEf
libupm-buzzer.so.1:_ZN3upm6Buzzer9stopSoundEv
libupm-buzzer.so.1:_ZN3upm6BuzzerC1Ei
libupm-buzzer.so.1:_ZN3upm6BuzzerC2Ei
libupm-buzzer.so.1:_ZN3upm6BuzzerD1Ev
libupm-buzzer.so.1:_ZN3upm6BuzzerD2Ev
libupm-cjq4435.so.1:_ZN3upm7CJQ443511setPeriodMSEi
libupm-cjq4435.so.1:_ZN3upm7CJQ443511setPeriodUSEi
libupm-cjq4435.so.1:_ZN3upm7CJQ443512setDutyCycleEf
libupm-cjq4435.so.1:_ZN3upm7CJQ443516setPeriodSecondsEf
libupm-cjq4435.so.1:_ZN3upm7CJQ44352onEv
libupm-cjq4435.so.1:_ZN3upm7CJQ44353offEv
libupm-cjq4435.so.1:_ZN3upm7CJQ44356enableEb
libupm-cjq4435.so.1:_ZN3upm7CJQ4435C1Ei
libupm-cjq4435.so.1:_ZN3upm7CJQ4435C2Ei
libupm-cjq4435.so.1:_ZN3upm7CJQ4435D1Ev
libupm-cjq4435.so.1:_ZN3upm7CJQ4435D2Ev
libupm-collision.so.1:_ZN3upm9Collision11isCollidingEv
libupm-collision.so.1:_ZN3upm9CollisionC1Ei
libupm-collision.so.1:_ZN3upm9CollisionC2Ei
libupm-collision.so.1:_ZN3upm9CollisionD1Ev
libupm-collision.so.1:_ZN3upm9CollisionD2Ev
libupm-cwlsxxa.so.1:_ZN3upm7CWLSXXA11getHumidityEv
libupm-cwlsxxa.so.1:_ZN3upm7CWLSXXA14getTemperatureEb
libupm-cwlsxxa.so.1:_ZN3upm7CWLSXXA6getCO2Ev
libupm-cwlsxxa.so.1:_ZN3upm7CWLSXXA6updateEv
libupm-cwlsxxa.so.1:_ZN3upm7CWLSXXA7averageEPN4mraa3AioEi
libupm-cwlsxxa.so.1:_ZN3upm7CWLSXXAC1Eiiiff
libupm-cwlsxxa.so.1:_ZN3upm7CWLSXXAC2Eiiiff
libupm-cwlsxxa.so.1:_ZN3upm7CWLSXXAD1Ev
libupm-cwlsxxa.so.1:_ZN3upm7CWLSXXAD2Ev
libupm-dfrec.so.1:_ZN3upm5DFREC13getNormalizedEv
libupm-dfrec.so.1:_ZN3upm5DFREC13setThreshold1Efff
libupm-dfrec.so.1:_ZN3upm5DFREC13setThreshold2Efff
libupm-dfrec.so.1:_ZN3upm5DFREC13setThreshold3Eff
libupm-dfrec.so.1:_ZN3upm5DFREC14getTemperatureEv
libupm-dfrec.so.1:_ZN3upm5DFREC18setThresholdMinMaxEff
libupm-dfrec.so.1:_ZN3upm5DFREC5getECEv
libupm-dfrec.so.1:_ZN3upm5DFREC6updateEv
libupm-dfrec.so.1:_ZN3upm5DFREC8getVoltsEv
libupm-dfrec.so.1:_ZN3upm5DFREC8setScaleEf
libupm-dfrec.so.1:_ZN3upm5DFREC9setOffsetEf
libupm-dfrec.so.1:_ZN3upm5DFRECC1Ejjjf
libupm-dfrec.so.1:_ZN3upm5DFRECC2Ejjjf
libupm-dfrec.so.1:_ZN3upm5DFRECD1Ev
libupm-dfrec.so.1:_ZN3upm5DFRECD2Ev
libupm-dfrorp.so.1:_ZN3upm6DFRORP13getNormalizedEv
libupm-dfrorp.so.1:_ZN3upm6DFRORP20setCalibrationOffsetEf
libupm-dfrorp.so.1:_ZN3upm6DFRORP6getORPEv
libupm-dfrorp.so.1:_ZN3upm6DFRORP6updateEv
libupm-dfrorp.so.1:_ZN3upm6DFRORP8getVoltsEv
libupm-dfrorp.so.1:_ZN3upm6DFRORP8setScaleEf
libupm-dfrorp.so.1:_ZN3upm6DFRORP9setOffsetEf
libupm-dfrorp.so.1:_ZN3upm6DFRORPC1Eif
libupm-dfrorp.so.1:_ZN3upm6DFRORPC2Eif
libupm-dfrorp.so.1:_ZN3upm6DFRORPD1Ev
libupm-dfrorp.so.1:_ZN3upm6DFRORPD2Ev
libupm-dfrph.so.1:_ZN3upm5DFRPH2pHEj
libupm-dfrph.so.1:_ZN3upm5DFRPH5voltsEv
libupm-dfrph.so.1:_ZN3upm5DFRPH8setScaleEf
libupm-dfrph.so.1:_ZN3upm5DFRPH9setOffsetEf
libupm-dfrph.so.1:_ZN3upm5DFRPHC1Eif
libupm-dfrph.so.1:_ZN3upm5DFRPHC2Eif
libupm-dfrph.so.1:_ZN3upm5DFRPHD1Ev
libupm-dfrph.so.1:_ZN3upm5DFRPHD2Ev
libupm-ds1307.so.1:_ZN3upm6DS130710writeBytesEhPhi
libupm-ds1307.so.1:_ZN3upm6DS130711enableClockEv
libupm-ds1307.so.1:_ZN3upm6DS130712disableClockEv
libupm-ds1307.so.1:_ZN3upm6DS13077setTimeEv
libupm-ds1307.so.1:_ZN3upm6DS13078bcdToDecEh
libupm-ds1307.so.1:_ZN3upm6DS13078decToBcdEj
libupm-ds1307.so.1:_ZN3upm6DS13078loadTimeEv
libupm-ds1307.so.1:_ZN3upm6DS13079readBytesEhPhi
libupm-ds1307.so.1:_ZN3upm6DS1307C1Ei
libupm-ds1307.so.1:_ZN3upm6DS1307C2Ei
libupm-ds1808lc.so.1:_ZN3upm8DS1808LC10setPowerOnEv
libupm-ds1808lc.so.1:_ZN3upm8DS1808LC11setPowerOffEv
libupm-ds1808lc.so.1:_ZN3upm8DS1808LC12getPot1ValueEi
libupm-ds1808lc.so.1:_ZN3upm8DS1808LC12getPot2ValueEi
libupm-ds1808lc.so.1:_ZN3upm8DS1808LC13getBrightnessEv
libupm-ds1808lc.so.1:_ZN3upm8DS1808LC13setBrightnessEi
libupm-ds1808lc.so.1:_ZN3upm8DS1808LC19getScaledResistanceEi
libupm-ds1808lc.so.1:_ZN3upm8DS1808LC20getPercentBrightnessEhh
libupm-ds1808lc.so.1:_ZN3upm8DS1808LC9isPoweredEv
libupm-ds1808lc.so.1:_ZN3upm8DS1808LCC1Eii
libupm-ds1808lc.so.1:_ZN3upm8DS1808LCC2Eii
libupm-ds1808lc.so.1:_ZN3upm8DS1808LCD0Ev
libupm-ds1808lc.so.1:_ZN3upm8DS1808LCD1Ev
libupm-ds1808lc.so.1:_ZN3upm8DS1808LCD2Ev
libupm-ds1808lc.so.1:_ZTv0_n32_N3upm8DS1808LCD0Ev
libupm-ds1808lc.so.1:_ZTv0_n32_N3upm8DS1808LCD1Ev
libupm-ds18b20.so.1:_ZN3upm7DS18B2012recallEEPROMEj
libupm-ds18b20.so.1:_ZN3upm7DS18B2013setResolutionEj21DS18B20_RESOLUTIONS_T
libupm-ds18b20.so.1:_ZN3upm7DS18B2014copyScratchPadEj
libupm-ds18b20.so.1:_ZN3upm7DS18B2014getTemperatureEjb
libupm-ds18b20.so.1:_ZN3upm7DS18B204initEv
libupm-ds18b20.so.1:_ZN3upm7DS18B205getIdB5cxx11Ej
libupm-ds18b20.so.1:_ZN3upm7DS18B206updateEi
libupm-ds18b20.so.1:_ZN3upm7DS18B20C1Ei
libupm-ds18b20.so.1:_ZN3upm7DS18B20C2Ei
libupm-ds18b20.so.1:_ZN3upm7DS18B20D1Ev
libupm-ds18b20.so.1:_ZN3upm7DS18B20D2Ev
libupm-ds2413.so.1:_ZN3upm6DS241310writeGpiosEii
libupm-ds2413.so.1:_ZN3upm6DS24134initEv
libupm-ds2413.so.1:_ZN3upm6DS24139readGpiosEi
libupm-ds2413.so.1:_ZN3upm6DS2413C1Ei
libupm-ds2413.so.1:_ZN3upm6DS2413C2Ei
libupm-ds2413.so.1:_ZN3upm6DS2413D1Ev
libupm-ds2413.so.1:_ZN3upm6DS2413D2Ev
libupm-ecezo.so.1:_ZN3upm5ECEZO11getSalinityEv
libupm-ecezo.so.1:_ZN3upm5ECEZO11sendCommandENSt7__cxx1112basic_stringIcSt11char_traitsIcESaIcEEE
libupm-ecezo.so.1:_ZN3upm5ECEZO13setContinuousEb
libupm-ecezo.so.1:_ZN3upm5ECEZO14setTemperatureEf
libupm-ecezo.so.1:_ZN3upm5ECEZO4readB5cxx11Ev
libupm-ecezo.so.1:_ZN3upm5ECEZO5getECEv
libupm-ecezo.so.1:_ZN3upm5ECEZO5getSGEv
libupm-ecezo.so.1:_ZN3upm5ECEZO5writeENSt7__cxx1112basic_stringIcSt11char_traitsIcESaIcEEE
libupm-ecezo.so.1:_ZN3upm5ECEZO6getTDSEv
libupm-ecezo.so.1:_ZN3upm5ECEZO6updateEv
libupm-ecezo.so.1:_ZN3upm5ECEZO8setSleepEb
libupm-ecezo.so.1:_ZN3upm5ECEZO9calibrateE19ECEZO_CALIBRATION_Tf
libupm-ecezo.so.1:_ZN3upm5ECEZO9setKValueEf
libupm-ecezo.so.1:_ZN3upm5ECEZOC1Ejjb
libupm-ecezo.so.1:_ZN3upm5ECEZOC2Ejjb
libupm-ecezo.so.1:_ZN3upm5ECEZOD1Ev
libupm-ecezo.so.1:_ZN3upm5ECEZOD2Ev
libupm-ecs1030.so.1:_ZN3upm7ECS103010getPower_AEv
libupm-ecs1030.so.1:_ZN3upm7ECS103010getPower_BEv
libupm-ecs1030.so.1:_ZN3upm7ECS103013getCurrency_AEv
libupm-ecs1030.so.1:_ZN3upm7ECS103013getCurrency_BEv
libupm-ecs1030.so.1:_ZN3upm7ECS1030C1Ei
libupm-ecs1030.so.1:_ZN3upm7ECS1030C2Ei
libupm-ecs1030.so.1:_ZN3upm7ECS1030D1Ev
libupm-ecs1030.so.1:_ZN3upm7ECS1030D2Ev
libupm-ehr.so.1:_ZN3upm3EHR11beatCounterEv
libupm-ehr.so.1:_ZN3upm3EHR15stopBeatCounterEv
libupm-ehr.so.1:_ZN3upm3EHR16clearBeatCounterEv
libupm-ehr.so.1:_ZN3upm3EHR16startBeatCounterEv
libupm-ehr.so.1:_ZN3upm3EHR7beatISREPv
libupm-ehr.so.1:_ZN3upm3EHR9getMillisEv
libupm-ehr.so.1:_ZN3upm3EHR9heartRateEv
libupm-ehr.so.1:_ZN3upm3EHR9initClockEv
libupm-ehr.so.1:_ZN3upm3EHRC1Ei
libupm-ehr.so.1:_ZN3upm3EHRC2Ei
libupm-ehr.so.1:_ZN3upm3EHRD1Ev
libupm-ehr.so.1:_ZN3upm3EHRD2Ev
libupm-eldriver.so.1:_ZN3upm8ElDriver2onEv
libupm-eldriver.so.1:_ZN3upm8ElDriver3offEv
libupm-eldriver.so.1:_ZN3upm8ElDriverC1Ei
libupm-eldriver.so.1:_ZN3upm8ElDriverC2Ei
libupm-eldriver.so.1:_ZN3upm8ElDriverD1Ev
libupm-eldriver.so.1:_ZN3upm8ElDriverD2Ev
libupm-electromagnet.so.1:_ZN3upm13Electromagnet2onEv
libupm-electromagnet.so.1:_ZN3upm13Electromagnet3offEv
libupm-electromagnet.so.1:_ZN3upm13ElectromagnetC1Ei
libupm-electromagnet.so.1:_ZN3upm13ElectromagnetC2Ei
libupm-electromagnet.so.1:_ZN3upm13ElectromagnetD1Ev
libupm-electromagnet.so.1:_ZN3upm13ElectromagnetD2Ev
libupm-emg.so.1:_ZN3upm3EMG5valueEv
libupm-emg.so.1:_ZN3upm3EMG9calibrateEv
libupm-emg.so.1:_ZN3upm3EMGC1Ei
libupm-emg.so.1:_ZN3upm3EMGC2Ei
libupm-emg.so.1:_ZN3upm3EMGD1Ev
libupm-emg.so.1:_ZN3upm3EMGD2Ev
libupm-enc03r.so.1:_ZN3upm6ENC03R13getNormalizedEv
libupm-enc03r.so.1:_ZN3upm6ENC03R15angularVelocityEv
libupm-enc03r.so.1:_ZN3upm6ENC03R6updateEv
libupm-enc03r.so.1:_ZN3upm6ENC03R8setScaleEf
libupm-enc03r.so.1:_ZN3upm6ENC03R9calibrateEj
libupm-enc03r.so.1:_ZN3upm6ENC03R9setOffsetEf
libupm-enc03r.so.1:_ZN3upm6ENC03RC1Eif
libupm-enc03r.so.1:_ZN3upm6ENC03RC2Eif
libupm-enc03r.so.1:_ZN3upm6ENC03RD1Ev
libupm-enc03r.so.1:_ZN3upm6ENC03RD2Ev
libupm-flex.so.1:_ZN3upm4Flex5valueEv
libupm-flex.so.1:_ZN3upm4FlexC1Ei
libupm-flex.so.1:_ZN3upm4FlexC2Ei
libupm-flex.so.1:_ZN3upm4FlexD1Ev
libupm-flex.so.1:_ZN3upm4FlexD2Ev
libupm-gas.so.1:_ZN3upm3Gas10printGraphEP16thresholdContexth
libupm-gas.so.1:_ZN3upm3Gas13findThresholdEP16thresholdContextjPti
libupm-gas.so.1:_ZN3upm3Gas14getSampledDataEP16thresholdContext
libupm-gas.so.1:_ZN3upm3Gas16getSampledWindowEjiPt
libupm-gas.so.1:_ZN3upm3Gas9getSampleEv
libupm-gas.so.1:_ZN3upm3GasC1Ei
libupm-gas.so.1:_ZN3upm3GasC2Ei
libupm-gas.so.1:_ZN3upm3GasD0Ev
libupm-gas.so.1:_ZN3upm3GasD1Ev
libupm-gas.so.1:_ZN3upm3GasD2Ev
libupm-gas.so.1:_ZN3upm3MQ2C1Ei
libupm-gas.so.1:_ZN3upm3MQ2C2Ei
libupm-gas.so.1:_ZN3upm3MQ2D0Ev
libupm-gas.so.1:_ZN3upm3MQ2D1Ev
libupm-gas.so.1:_ZN3upm3MQ2D2Ev
libupm-gas.so.1:_ZN3upm3MQ3C1Ei
libupm-gas.so.1:_ZN3upm3MQ3C2Ei
libupm-gas.so.1:_ZN3upm3MQ3D0Ev
libupm-gas.so.1:_ZN3upm3MQ3D1Ev
libupm-gas.so.1:_ZN3upm3MQ3D2Ev
libupm-gas.so.1:_ZN3upm3MQ4C1Ei
libupm-gas.so.1:_ZN3upm3MQ4C2Ei
libupm-gas.so.1:_ZN3upm3MQ4D0Ev
libupm-gas.so.1:_ZN3upm3MQ4D1Ev
libupm-gas.so.1:_ZN3upm3MQ4D2Ev
libupm-gas.so.1:_ZN3upm3MQ5C1Ei
libupm-gas.so.1:_ZN3upm3MQ5C2Ei
libupm-gas.so.1:_ZN3upm3MQ5D0Ev
libupm-gas.so.1:_ZN3upm3MQ5D1Ev
libupm-gas.so.1:_ZN3upm3MQ5D2Ev
libupm-gas.so.1:_ZN3upm3MQ6C1Ei
libupm-gas.so.1:_ZN3upm3MQ6C2Ei
libupm-gas.so.1:_ZN3upm3MQ6D0Ev
libupm-gas.so.1:_ZN3upm3MQ6D1Ev
libupm-gas.so.1:_ZN3upm3MQ6D2Ev
libupm-gas.so.1:_ZN3upm3MQ7C1Ei
libupm-gas.so.1:_ZN3upm3MQ7C2Ei
libupm-gas.so.1:_ZN3upm3MQ7D0Ev
libupm-gas.so.1:_ZN3upm3MQ7D1Ev
libupm-gas.so.1:_ZN3upm3MQ7D2Ev
libupm-gas.so.1:_ZN3upm3MQ8C1Ei
libupm-gas.so.1:_ZN3upm3MQ8C2Ei
libupm-gas.so.1:_ZN3upm3MQ8D0Ev
libupm-gas.so.1:_ZN3upm3MQ8D1Ev
libupm-gas.so.1:_ZN3upm3MQ8D2Ev
libupm-gas.so.1:_ZN3upm3MQ9C1Ei
libupm-gas.so.1:_ZN3upm3MQ9C2Ei
libupm-gas.so.1:_ZN3upm3MQ9D0Ev
libupm-gas.so.1:_ZN3upm3MQ9D1Ev
libupm-gas.so.1:_ZN3upm3MQ9D2Ev
libupm-gas.so.1:_ZN3upm5TP4016getPPMEv
libupm-gas.so.1:_ZN3upm5TP401C1Ei
libupm-gas.so.1:_ZN3upm5TP401C2Ei
libupm-gas.so.1:_ZN3upm5TP401D0Ev
libupm-gas.so.1:_ZN3upm5TP401D1Ev
libupm-gas.so.1:_ZN3upm5TP401D2Ev
libupm-gp2y0a.so.1:_ZN3upm6GP2Y0A5valueEfh
libupm-gp2y0a.so.1:_ZN3upm6GP2Y0AC1Ei
libupm-gp2y0a.so.1:_ZN3upm6GP2Y0AC2Ei
libupm-gp2y0a.so.1:_ZN3upm6GP2Y0AD1Ev
libupm-gp2y0a.so.1:_ZN3upm6GP2Y0AD2Ev
libupm-gprs.so.1:_ZN3upm4GPRS11readDataStrB5cxx11Ei
libupm-gprs.so.1:_ZN3upm4GPRS11setBaudRateEi
libupm-gprs.so.1:_ZN3upm4GPRS12writeDataStrENSt7__cxx1112basic_stringIcSt11char_traitsIcESaIcEEE
libupm-gprs.so.1:_ZN3upm4GPRS13dataAvailableEj
libupm-gprs.so.1:_ZN3upm4GPRS8readDataEPcj
libupm-gprs.so.1:_ZN3upm4GPRS9writeDataEPcj
libupm-gprs.so.1:_ZN3upm4GPRSC1Ei
libupm-gprs.so.1:_ZN3upm4GPRSC2Ei
libupm-gprs.so.1:_ZN3upm4GPRSD1Ev
libupm-gprs.so.1:_ZN3upm4GPRSD2Ev
libupm-grove.so.1:_ZN3upm10GroveLight5valueEv
libupm-grove.so.1:_ZN3upm10GroveLight9raw_valueEv
libupm-grove.so.1:_ZN3upm10GroveLightC1Ej
libupm-grove.so.1:_ZN3upm10GroveLightC2Ej
libupm-grove.so.1:_ZN3upm10GroveLightD0Ev
libupm-grove.so.1:_ZN3upm10GroveLightD1Ev
libupm-grove.so.1:_ZN3upm10GroveLightD2Ev
libupm-grove.so.1:_ZN3upm10GroveRelay2onEv
libupm-grove.so.1:_ZN3upm10GroveRelay3offEv
libupm-grove.so.1:_ZN3upm10GroveRelay4isOnEv
libupm-grove.so.1:_ZN3upm10GroveRelay5isOffEv
libupm-grove.so.1:_ZN3upm10GroveRelayC1Ej
libupm-grove.so.1:_ZN3upm10GroveRelayC2Ej
libupm-grove.so.1:_ZN3upm10GroveRelayD0Ev
libupm-grove.so.1:_ZN3upm10GroveRelayD1Ev
libupm-grove.so.1:_ZN3upm10GroveRelayD2Ev
libupm-grove.so.1:_ZN3upm10GroveSlide11ref_voltageEv
libupm-grove.so.1:_ZN3upm10GroveSlide13voltage_valueEv
libupm-grove.so.1:_ZN3upm10GroveSlide9raw_valueEv
libupm-grove.so.1:_ZN3upm10GroveSlideC1Ejf
libupm-grove.so.1:_ZN3upm10GroveSlideC2Ejf
libupm-grove.so.1:_ZN3upm10GroveSlideD0Ev
libupm-grove.so.1:_ZN3upm10GroveSlideD1Ev
libupm-grove.so.1:_ZN3upm10GroveSlideD2Ev
libupm-grove.so.1:_ZN3upm11GroveButton10installISREN4mraa4EdgeEPFvPvES3_
libupm-grove.so.1:_ZN3upm11GroveButton12uninstallISREv
libupm-grove.so.1:_ZN3upm11GroveButton4nameB5cxx11Ev
libupm-grove.so.1:_ZN3upm11GroveButton5valueEv
libupm-grove.so.1:_ZN3upm11GroveButtonC1Ej
libupm-grove.so.1:_ZN3upm11GroveButtonC2Ej
libupm-grove.so.1:_ZN3upm11GroveButtonD0Ev
libupm-grove.so.1:_ZN3upm11GroveButtonD1Ev
libupm-grove.so.1:_ZN3upm11GroveButtonD2Ev
libupm-grove.so.1:_ZN3upm11GroveRotary7abs_degEv
libupm-grove.so.1:_ZN3upm11GroveRotary7abs_radEv
libupm-grove.so.1:_ZN3upm11GroveRotary7rel_degEv
libupm-grove.so.1:_ZN3upm11GroveRotary7rel_radEv
libupm-grove.so.1:_ZN3upm11GroveRotary9abs_valueEv
libupm-grove.so.1:_ZN3upm11GroveRotary9rel_valueEv
libupm-grove.so.1:_ZN3upm11GroveRotaryC1Ej
libupm-grove.so.1:_ZN3upm11GroveRotaryC2Ej
libupm-grove.so.1:_ZN3upm11GroveRotaryD0Ev
libupm-grove.so.1:_ZN3upm11GroveRotaryD1Ev
libupm-grove.so.1:_ZN3upm11GroveRotaryD2Ev
libupm-grove.so.1:_ZN3upm8GroveLed2onEv
libupm-grove.so.1:_ZN3upm8GroveLed3offEv
libupm-grove.so.1:_ZN3upm8GroveLed5writeEi
libupm-grove.so.1:_ZN3upm8GroveLedC1Ei
libupm-grove.so.1:_ZN3upm8GroveLedC2Ei
libupm-grove.so.1:_ZN3upm8GroveLedD0Ev
libupm-grove.so.1:_ZN3upm8GroveLedD1Ev
libupm-grove.so.1:_ZN3upm8GroveLedD2Ev
libupm-grove.so.1:_ZN3upm9GroveTemp5valueEv
libupm-grove.so.1:_ZN3upm9GroveTemp9raw_valueEv
libupm-grove.so.1:_ZN3upm9GroveTempC1Ejfii
libupm-grove.so.1:_ZN3upm9GroveTempC2Ejfii
libupm-grove.so.1:_ZN3upm9GroveTempD0Ev
libupm-grove.so.1:_ZN3upm9GroveTempD1Ev
libupm-grove.so.1:_ZN3upm9GroveTempD2Ev
libupm-grovecollision.so.1:_ZN3upm14GroveCollision11isCollidingEv
libupm-grovecollision.so.1:_ZN3upm14GroveCollisionC1Ei
libupm-grovecollision.so.1:_ZN3upm14GroveCollisionC2Ei
libupm-grovecollision.so.1:_ZN3upm14GroveCollisionD1Ev
libupm-grovecollision.so.1:_ZN3upm14GroveCollisionD2Ev
libupm-groveehr.so.1:_ZN3upm8GroveEHR11beatCounterEv
libupm-groveehr.so.1:_ZN3upm8GroveEHR15stopBeatCounterEv
libupm-groveehr.so.1:_ZN3upm8GroveEHR16clearBeatCounterEv
libupm-groveehr.so.1:_ZN3upm8GroveEHR16startBeatCounterEv
libupm-groveehr.so.1:_ZN3upm8GroveEHR7beatISREPv
libupm-groveehr.so.1:_ZN3upm8GroveEHR9getMillisEv
libupm-groveehr.so.1:_ZN3upm8GroveEHR9heartRateEv
libupm-groveehr.so.1:_ZN3upm8GroveEHR9initClockEv
libupm-groveehr.so.1:_ZN3upm8GroveEHRC1Ei
libupm-groveehr.so.1:_ZN3upm8GroveEHRC2Ei
libupm-groveehr.so.1:_ZN3upm8GroveEHRD1Ev
libupm-groveehr.so.1:_ZN3upm8GroveEHRD2Ev
libupm-groveeldriver.so.1:_ZN3upm13GroveElDriver2onEv
libupm-groveeldriver.so.1:_ZN3upm13GroveElDriver3offEv
libupm-groveeldriver.so.1:_ZN3upm13GroveElDriverC1Ei
libupm-groveeldriver.so.1:_ZN3upm13GroveElDriverC2Ei
libupm-groveeldriver.so.1:_ZN3upm13GroveElDriverD1Ev
libupm-groveeldriver.so.1:_ZN3upm13GroveElDriverD2Ev
libupm-groveelectromagnet.so.1:_ZN3upm18GroveElectromagnet2onEv
libupm-groveelectromagnet.so.1:_ZN3upm18GroveElectromagnet3offEv
libupm-groveelectromagnet.so.1:_ZN3upm18GroveElectromagnetC1Ei
libupm-groveelectromagnet.so.1:_ZN3upm18GroveElectromagnetC2Ei
libupm-groveelectromagnet.so.1:_ZN3upm18GroveElectromagnetD1Ev
libupm-groveelectromagnet.so.1:_ZN3upm18GroveElectromagnetD2Ev
libupm-groveemg.so.1:_ZN3upm8GroveEMG5valueEv
libupm-groveemg.so.1:_ZN3upm8GroveEMG9calibrateEv
libupm-groveemg.so.1:_ZN3upm8GroveEMGC1Ei
libupm-groveemg.so.1:_ZN3upm8GroveEMGC2Ei
libupm-groveemg.so.1:_ZN3upm8GroveEMGD1Ev
libupm-groveemg.so.1:_ZN3upm8GroveEMGD2Ev
libupm-grovegprs.so.1:_ZN3upm9GroveGPRS11readDataStrB5cxx11Ei
libupm-grovegprs.so.1:_ZN3upm9GroveGPRS11setBaudRateEi
libupm-grovegprs.so.1:_ZN3upm9GroveGPRS12writeDataStrENSt7__cxx1112basic_stringIcSt11char_traitsIcESaIcEEE
libupm-grovegprs.so.1:_ZN3upm9GroveGPRS13dataAvailableEj
libupm-grovegprs.so.1:_ZN3upm9GroveGPRS8readDataEPcj
libupm-grovegprs.so.1:_ZN3upm9GroveGPRS9writeDataEPcj
libupm-grovegprs.so.1:_ZN3upm9GroveGPRSC1Ei
libupm-grovegprs.so.1:_ZN3upm9GroveGPRSC2Ei
libupm-grovegprs.so.1:_ZN3upm9GroveGPRSD1Ev
libupm-grovegprs.so.1:_ZN3upm9GroveGPRSD2Ev
libupm-grovegsr.so.1:_ZN3upm8GroveGSR5valueEv
libupm-grovegsr.so.1:_ZN3upm8GroveGSR9calibrateEv
libupm-grovegsr.so.1:_ZN3upm8GroveGSRC1Ei
libupm-grovegsr.so.1:_ZN3upm8GroveGSRC2Ei
libupm-grovegsr.so.1:_ZN3upm8GroveGSRD1Ev
libupm-grovegsr.so.1:_ZN3upm8GroveGSRD2Ev
libupm-grovelinefinder.so.1:_ZN3upm15GroveLineFinder13blackDetectedEv
libupm-grovelinefinder.so.1:_ZN3upm15GroveLineFinder13whiteDetectedEv
libupm-grovelinefinder.so.1:_ZN3upm15GroveLineFinderC1Ei
libupm-grovelinefinder.so.1:_ZN3upm15GroveLineFinderC2Ei
libupm-grovelinefinder.so.1:_ZN3upm15GroveLineFinderD1Ev
libupm-grovelinefinder.so.1:_ZN3upm15GroveLineFinderD2Ev
libupm-grovemd.so.1:_ZN3upm7GroveMD11stepperStepEv
libupm-grovemd.so.1:_ZN3upm7GroveMD11writePacketENS0_5REG_TEhh
libupm-grovemd.so.1:_ZN3upm7GroveMD13configStepperEjNS0_11STEP_MODE_TE
libupm-grovemd.so.1:_ZN3upm7GroveMD13enableStepperENS0_16STEP_DIRECTION_TEh
libupm-grovemd.so.1:_ZN3upm7GroveMD14disableStepperEv
libupm-grovemd.so.1:_ZN3upm7GroveMD14setMotorSpeedsEhh
libupm-grovemd.so.1:_ZN3upm7GroveMD15setStepperStepsEj
libupm-grovemd.so.1:_ZN3upm7GroveMD18setMotorDirectionsENS0_14DC_DIRECTION_TES1_
libupm-grovemd.so.1:_ZN3upm7GroveMD23setPWMFrequencyPrescaleEh
libupm-grovemd.so.1:_ZN3upm7GroveMD9getMillisEv
libupm-grovemd.so.1:_ZN3upm7GroveMD9initClockEv
libupm-grovemd.so.1:_ZN3upm7GroveMDC1Eih
libupm-grovemd.so.1:_ZN3upm7GroveMDC2Eih
libupm-grovemd.so.1:_ZN3upm7GroveMDD1Ev
libupm-grovemd.so.1:_ZN3upm7GroveMDD2Ev
libupm-grovemoisture.so.1:_ZN3upm13GroveMoisture5valueEv
libupm-grovemoisture.so.1:_ZN3upm13GroveMoistureC1Ei
libupm-grovemoisture.so.1:_ZN3upm13GroveMoistureC2Ei
libupm-grovemoisture.so.1:_ZN3upm13GroveMoistureD1Ev
libupm-grovemoisture.so.1:_ZN3upm13GroveMoistureD2Ev
libupm-groveo2.so.1:_ZN3upm7GroveO212voltageValueEv
libupm-groveo2.so.1:_ZN3upm7GroveO2C1Ei
libupm-groveo2.so.1:_ZN3upm7GroveO2C2Ei
libupm-groveo2.so.1:_ZN3upm7GroveO2D1Ev
libupm-groveo2.so.1:_ZN3upm7GroveO2D2Ev
libupm-grovescam.so.1:_ZN3upm9GROVESCAM10drainInputEv
libupm-grovescam.so.1:_ZN3upm9GROVESCAM10preCaptureENS0_13PIC_FORMATS_TE
libupm-grovescam.so.1:_ZN3upm9GROVESCAM10storeImageEPKc
libupm-grovescam.so.1:_ZN3upm9GROVESCAM13dataAvailableEj
libupm-grovescam.so.1:_ZN3upm9GROVESCAM4initEv
libupm-grovescam.so.1:_ZN3upm9GROVESCAM8readDataEPhi
libupm-grovescam.so.1:_ZN3upm9GROVESCAM8setupTtyEj
libupm-grovescam.so.1:_ZN3upm9GROVESCAM9doCaptureEv
libupm-grovescam.so.1:_ZN3upm9GROVESCAM9writeDataEPhi
libupm-grovescam.so.1:_ZN3upm9GROVESCAMC1Eih
libupm-grovescam.so.1:_ZN3upm9GROVESCAMC2Eih
libupm-grovescam.so.1:_ZN3upm9GROVESCAMD1Ev
libupm-grovescam.so.1:_ZN3upm9GROVESCAMD2Ev
libupm-grovespeaker.so.1:_ZN3upm12GroveSpeaker5soundEi
libupm-grovespeaker.so.1:_ZN3upm12GroveSpeaker7playAllEv
libupm-grovespeaker.so.1:_ZN3upm12GroveSpeaker9playSoundEcbNSt7__cxx1112basic_stringIcSt11char_traitsIcESaIcEEE
libupm-grovespeaker.so.1:_ZN3upm12GroveSpeaker9storeNoteEiiiiii
libupm-grovespeaker.so.1:_ZN3upm12GroveSpeakerC1Ei
libupm-grovespeaker.so.1:_ZN3upm12GroveSpeakerC2Ei
libupm-grovespeaker.so.1:_ZN3upm12GroveSpeakerD1Ev
libupm-grovespeaker.so.1:_ZN3upm12GroveSpeakerD2Ev
libupm-groveultrasonic.so.1:_ZN3upm15GroveUltraSonic11getDistanceEv
libupm-groveultrasonic.so.1:_ZN3upm15GroveUltraSonic15ackEdgeDetectedEv
libupm-groveultrasonic.so.1:_ZN3upm15GroveUltraSonic9signalISREPv
libupm-groveultrasonic.so.1:_ZN3upm15GroveUltraSonicC1Ei
libupm-groveultrasonic.so.1:_ZN3upm15GroveUltraSonicC2Ei
libupm-groveultrasonic.so.1:_ZN3upm15GroveUltraSonicD1Ev
libupm-groveultrasonic.so.1:_ZN3upm15GroveUltraSonicD2Ev
libupm-grovevdiv.so.1:_ZN3upm9GroveVDiv13computedValueEhjii
libupm-grovevdiv.so.1:_ZN3upm9GroveVDiv5valueEj
libupm-grovevdiv.so.1:_ZN3upm9GroveVDivC1Ei
libupm-grovevdiv.so.1:_ZN3upm9GroveVDivC2Ei
libupm-grovevdiv.so.1:_ZN3upm9GroveVDivD1Ev
libupm-grovevdiv.so.1:_ZN3upm9GroveVDivD2Ev
libupm-grovewater.so.1:_ZN3upm10GroveWater5isWetEv
libupm-grovewater.so.1:_ZN3upm10GroveWaterC1Ei
libupm-grovewater.so.1:_ZN3upm10GroveWaterC2Ei
libupm-grovewater.so.1:_ZN3upm10GroveWaterD1Ev
libupm-grovewater.so.1:_ZN3upm10GroveWaterD2Ev
libupm-grovewfs.so.1:_ZN3upm8GroveWFS15stopFlowCounterEv
libupm-grovewfs.so.1:_ZN3upm8GroveWFS16startFlowCounterEv
libupm-grovewfs.so.1:_ZN3upm8GroveWFS7flowISREPv
libupm-grovewfs.so.1:_ZN3upm8GroveWFS8flowRateEv
libupm-grovewfs.so.1:_ZN3upm8GroveWFS9getMillisEv
libupm-grovewfs.so.1:_ZN3upm8GroveWFS9initClockEv
libupm-grovewfs.so.1:_ZN3upm8GroveWFSC1Ei
libupm-grovewfs.so.1:_ZN3upm8GroveWFSC2Ei
libupm-grovewfs.so.1:_ZN3upm8GroveWFSD1Ev
libupm-grovewfs.so.1:_ZN3upm8GroveWFSD2Ev
libupm-gsr.so.1:_ZN3upm3GSR5valueEv
libupm-gsr.so.1:_ZN3upm3GSR9calibrateEv
libupm-gsr.so.1:_ZN3upm3GSRC1Ei
libupm-gsr.so.1:_ZN3upm3GSRC2Ei
libupm-gsr.so.1:_ZN3upm3GSRD1Ev
libupm-gsr.so.1:_ZN3upm3GSRD2Ev
libupm-guvas12d.so.1:_ZN3upm8GUVAS12D5valueEfj
libupm-guvas12d.so.1:_ZN3upm8GUVAS12D5voltsEv
libupm-guvas12d.so.1:_ZN3upm8GUVAS12D8setScaleEf
libupm-guvas12d.so.1:_ZN3upm8GUVAS12D9intensityEv
libupm-guvas12d.so.1:_ZN3upm8GUVAS12D9setOffsetEf
libupm-guvas12d.so.1:_ZN3upm8GUVAS12DC1Eif
libupm-guvas12d.so.1:_ZN3upm8GUVAS12DC2Eif
libupm-guvas12d.so.1:_ZN3upm8GUVAS12DD1Ev
libupm-guvas12d.so.1:_ZN3upm8GUVAS12DD2Ev
libupm-h3lis331dl.so.1:_ZN3upm10H3LIS331DL10enableAxisEh
libupm-h3lis331dl.so.1:_ZN3upm10H3LIS331DL10enableHPF1Eb
libupm-h3lis331dl.so.1:_ZN3upm10H3LIS331DL10enableHPF2Eb
libupm-h3lis331dl.so.1:_ZN3upm10H3LIS331DL11setDataRateENS0_9DR_BITS_TE
libupm-h3lis331dl.so.1:_ZN3upm10H3LIS331DL12setFullScaleENS0_9FS_BITS_TE
libupm-h3lis331dl.so.1:_ZN3upm10H3LIS331DL12setPowerModeENS0_9PM_BITS_TE
libupm-h3lis331dl.so.1:_ZN3upm10H3LIS331DL15getAccelerationEPfS1_S1_
libupm-h3lis331dl.so.1:_ZN3upm10H3LIS331DL15getAccelerationEv
libupm-h3lis331dl.so.1:_ZN3upm10H3LIS331DL17enableSleepToWakeEb
libupm-h3lis331dl.so.1:_ZN3upm10H3LIS331DL18setInterrupt1LatchEb
libupm-h3lis331dl.so.1:_ZN3upm10H3LIS331DL18setInterrupt2LatchEb
libupm-h3lis331dl.so.1:_ZN3upm10H3LIS331DL19setInterrupt1ConfigEh
libupm-h3lis331dl.so.1:_ZN3upm10H3LIS331DL19setInterrupt1SourceEh
libupm-h3lis331dl.so.1:_ZN3upm10H3LIS331DL19setInterrupt2ConfigEh
libupm-h3lis331dl.so.1:_ZN3upm10H3LIS331DL19setInterrupt2SourceEh
libupm-h3lis331dl.so.1:_ZN3upm10H3LIS331DL20setAdjustmentOffsetsEiii
libupm-h3lis331dl.so.1:_ZN3upm10H3LIS331DL21setInterrupt1DurationEh
libupm-h3lis331dl.so.1:_ZN3upm10H3LIS331DL21setInterrupt2DurationEh
libupm-h3lis331dl.so.1:_ZN3upm10H3LIS331DL21setInterruptActiveLowEb
libupm-h3lis331dl.so.1:_ZN3upm10H3LIS331DL21setInterruptOpenDrainEb
libupm-h3lis331dl.so.1:_ZN3upm10H3LIS331DL22setInterrupt1PadConfigENS0_12I_CFG_BITS_TE
libupm-h3lis331dl.so.1:_ZN3upm10H3LIS331DL22setInterrupt1ThresholdEh
libupm-h3lis331dl.so.1:_ZN3upm10H3LIS331DL22setInterrupt2PadConfigENS0_12I_CFG_BITS_TE
libupm-h3lis331dl.so.1:_ZN3upm10H3LIS331DL22setInterrupt2ThresholdEh
libupm-h3lis331dl.so.1:_ZN3upm10H3LIS331DL4bootEv
libupm-h3lis331dl.so.1:_ZN3upm10H3LIS331DL4initENS0_9DR_BITS_TENS0_9PM_BITS_TENS0_9FS_BITS_TE
libupm-h3lis331dl.so.1:_ZN3upm10H3LIS331DL6getXYZEPiS1_S1_
libupm-h3lis331dl.so.1:_ZN3upm10H3LIS331DL6getXYZEv
libupm-h3lis331dl.so.1:_ZN3upm10H3LIS331DL6setHPMENS0_10HPM_BITS_TE
libupm-h3lis331dl.so.1:_ZN3upm10H3LIS331DL6updateEv
libupm-h3lis331dl.so.1:_ZN3upm10H3LIS331DL7setHPCFENS0_11HPCF_BITS_TE
libupm-h3lis331dl.so.1:_ZN3upm10H3LIS331DL9enableBDUEb
libupm-h3lis331dl.so.1:_ZN3upm10H3LIS331DL9enableBLEEb
libupm-h3lis331dl.so.1:_ZN3upm10H3LIS331DL9enableFDSEb
libupm-h3lis331dl.so.1:_ZN3upm10H3LIS331DL9getChipIDEv
libupm-h3lis331dl.so.1:_ZN3upm10H3LIS331DL9getRawXYZEPiS1_S1_
libupm-h3lis331dl.so.1:_ZN3upm10H3LIS331DL9getRawXYZEv
libupm-h3lis331dl.so.1:_ZN3upm10H3LIS331DL9getStatusEv
libupm-h3lis331dl.so.1:_ZN3upm10H3LIS331DLC1Eih
libupm-h3lis331dl.so.1:_ZN3upm10H3LIS331DLC2Eih
libupm-h3lis331dl.so.1:_ZN3upm10H3LIS331DLD1Ev
libupm-h3lis331dl.so.1:_ZN3upm10H3LIS331DLD2Ev
libupm-hcsr04.so.1:_ZN3upm6HCSR0411getDistanceE8HCSR04_U
libupm-hcsr04.so.1:_ZN3upm6HCSR04C1Eii
libupm-hcsr04.so.1:_ZN3upm6HCSR04C2Eii
libupm-hcsr04.so.1:_ZN3upm6HCSR04D1Ev
libupm-hcsr04.so.1:_ZN3upm6HCSR04D2Ev
libupm-hdc1000.so.1:_ZN3upm7HDC100010sampleDataEv
libupm-hdc1000.so.1:_ZN3upm7HDC100011getHumidityEi
libupm-hdc1000.so.1:_ZN3upm7HDC100011resetSensorEv
libupm-hdc1000.so.1:_ZN3upm7HDC100014getTemperatureEi
libupm-hdc1000.so.1:_ZN3upm7HDC10007checkIDEv
libupm-hdc1000.so.1:_ZN3upm7HDC1000C1Eii
libupm-hdc1000.so.1:_ZN3upm7HDC1000C2Eii
libupm-hdxxvxta.so.1:_ZN3upm8HDXXVXTA11getHumidityEv
libupm-hdxxvxta.so.1:_ZN3upm8HDXXVXTA14getTemperatureEb
libupm-hdxxvxta.so.1:_ZN3upm8HDXXVXTA6updateEv
libupm-hdxxvxta.so.1:_ZN3upm8HDXXVXTAC1Eiif
libupm-hdxxvxta.so.1:_ZN3upm8HDXXVXTAC2Eiif
libupm-hdxxvxta.so.1:_ZN3upm8HDXXVXTAD1Ev
libupm-hdxxvxta.so.1:_ZN3upm8HDXXVXTAD2Ev
libupm-hka5.so.1:_ZN3upm4HKA55resetEv
libupm-hka5.so.1:_ZN3upm4HKA56enableEb
libupm-hka5.so.1:_ZN3upm4HKA56getPM1Ev
libupm-hka5.so.1:_ZN3upm4HKA56updateEv
libupm-hka5.so.1:_ZN3upm4HKA57getPM10Ev
libupm-hka5.so.1:_ZN3upm4HKA58getPM2_5Ev
libupm-hka5.so.1:_ZN3upm4HKA5C1Ejii
libupm-hka5.so.1:_ZN3upm4HKA5C2Ejii
libupm-hka5.so.1:_ZN3upm4HKA5D1Ev
libupm-hka5.so.1:_ZN3upm4HKA5D2Ev
libupm-hlg150h.so.1:_ZN3upm7HLG150H10setPowerOnEv
libupm-hlg150h.so.1:_ZN3upm7HLG150H11setPowerOffEv
libupm-hlg150h.so.1:_ZN3upm7HLG150H13getBrightnessEv
libupm-hlg150h.so.1:_ZN3upm7HLG150H13setBrightnessEi
libupm-hlg150h.so.1:_ZN3upm7HLG150H9isPoweredEv
libupm-hlg150h.so.1:_ZN3upm7HLG150HC1Eii
libupm-hlg150h.so.1:_ZN3upm7HLG150HC2Eii
libupm-hlg150h.so.1:_ZN3upm7HLG150HD0Ev
libupm-hlg150h.so.1:_ZN3upm7HLG150HD1Ev
libupm-hlg150h.so.1:_ZN3upm7HLG150HD2Ev
libupm-hlg150h.so.1:_ZTv0_n32_N3upm7HLG150HD0Ev
libupm-hlg150h.so.1:_ZTv0_n32_N3upm7HLG150HD1Ev
libupm-hm11.so.1:_ZN3upm4HM1113dataAvailableEj
libupm-hm11.so.1:_ZN3upm4HM118readDataEPci
libupm-hm11.so.1:_ZN3upm4HM118setupTtyEj
libupm-hm11.so.1:_ZN3upm4HM119writeDataEPci
libupm-hm11.so.1:_ZN3upm4HM11C1Ei
libupm-hm11.so.1:_ZN3upm4HM11C2Ei
libupm-hm11.so.1:_ZN3upm4HM11D1Ev
libupm-hm11.so.1:_ZN3upm4HM11D2Ev
libupm-hmc5883l.so.1:_ZN3upm8Hmc5883l11coordinatesEv
libupm-hmc5883l.so.1:_ZN3upm8Hmc5883l15get_declinationEv
libupm-hmc5883l.so.1:_ZN3upm8Hmc5883l15set_declinationEf
libupm-hmc5883l.so.1:_ZN3upm8Hmc5883l6updateEv
libupm-hmc5883l.so.1:_ZN3upm8Hmc5883l7headingEv
libupm-hmc5883l.so.1:_ZN3upm8Hmc5883l9directionEv
libupm-hmc5883l.so.1:_ZN3upm8Hmc5883lC1Ei
libupm-hmc5883l.so.1:_ZN3upm8Hmc5883lC2Ei
libupm-hmtrp.so.1:_ZN3upm5HMTRP12setFrequencyEj
libupm-hmtrp.so.1:_ZN3upm5HMTRP12setUARTSpeedEj
libupm-hmtrp.so.1:_ZN3upm5HMTRP13dataAvailableEj
libupm-hmtrp.so.1:_ZN3upm5HMTRP13setRFDataRateEj
libupm-hmtrp.so.1:_ZN3upm5HMTRP14setRXBandwidthEt
libupm-hmtrp.so.1:_ZN3upm5HMTRP16setTransmitPowerEh
libupm-hmtrp.so.1:_ZN3upm5HMTRP19getRFSignalStrengthEPh
libupm-hmtrp.so.1:_ZN3upm5HMTRP19getRFSignalStrengthEv
libupm-hmtrp.so.1:_ZN3upm5HMTRP20getModSignalStrengthEPh
libupm-hmtrp.so.1:_ZN3upm5HMTRP20getModSignalStrengthEv
libupm-hmtrp.so.1:_ZN3upm5HMTRP22setFrequencyModulationEh
libupm-hmtrp.so.1:_ZN3upm5HMTRP5resetEv
libupm-hmtrp.so.1:_ZN3upm5HMTRP7checkOKEv
libupm-hmtrp.so.1:_ZN3upm5HMTRP8readDataEPcii
libupm-hmtrp.so.1:_ZN3upm5HMTRP8setupTtyEj
libupm-hmtrp.so.1:_ZN3upm5HMTRP9getConfigEPjS1_PtPhS3_S1_
libupm-hmtrp.so.1:_ZN3upm5HMTRP9writeDataEPci
libupm-hmtrp.so.1:_ZN3upm5HMTRPC1Ei
libupm-hmtrp.so.1:_ZN3upm5HMTRPC2Ei
libupm-hmtrp.so.1:_ZN3upm5HMTRPD1Ev
libupm-hmtrp.so.1:_ZN3upm5HMTRPD2Ev
libupm-hp20x.so.1:_ZN3upm5HP20X11getAltitudeEv
libupm-hp20x.so.1:_ZN3upm5HP20X11getPressureEv
libupm-hp20x.so.1:_ZN3upm5HP20X14getTemperatureEv
libupm-hp20x.so.1:_ZN3upm5HP20X16setPAThreshholdsEsss
libupm-hp20x.so.1:_ZN3upm5HP20X17setAltitudeOffsetEs
libupm-hp20x.so.1:_ZN3upm5HP20X18compensationEnableEb
libupm-hp20x.so.1:_ZN3upm5HP20X18getInterruptSourceEv
libupm-hp20x.so.1:_ZN3upm5HP20X18setInterruptConfigEh
libupm-hp20x.so.1:_ZN3upm5HP20X18setInterruptEnableEh
libupm-hp20x.so.1:_ZN3upm5HP20X18waitforDeviceReadyEv
libupm-hp20x.so.1:_ZN3upm5HP20X19recalibrateInternalEv
libupm-hp20x.so.1:_ZN3upm5HP20X25setTemperatureThreshholdsEaaa
libupm-hp20x.so.1:_ZN3upm5HP20X4initENS0_10DSR_BITS_TE
libupm-hp20x.so.1:_ZN3upm5HP20X6setDSRENS0_10DSR_BITS_TE
libupm-hp20x.so.1:_ZN3upm5HP20X7isReadyEv
libupm-hp20x.so.1:_ZN3upm5HP20X7readRegENS0_11HP20X_REG_TE
libupm-hp20x.so.1:_ZN3upm5HP20X8readDataEv
libupm-hp20x.so.1:_ZN3upm5HP20X8writeCmdEh
libupm-hp20x.so.1:_ZN3upm5HP20X8writeRegENS0_11HP20X_REG_TEh
libupm-hp20x.so.1:_ZN3upm5HP20X9softResetEv
libupm-hp20x.so.1:_ZN3upm5HP20XC1Eih
libupm-hp20x.so.1:_ZN3upm5HP20XC2Eih
libupm-hp20x.so.1:_ZN3upm5HP20XD1Ev
libupm-hp20x.so.1:_ZN3upm5HP20XD2Ev
libupm-ht9170.so.1:_ZN3upm6HT917010digitReadyEv
libupm-ht9170.so.1:_ZN3upm6HT917011decodeDigitEv
libupm-ht9170.so.1:_ZN3upm6HT9170C1Eiiiii
libupm-ht9170.so.1:_ZN3upm6HT9170C2Eiiiii
libupm-ht9170.so.1:_ZN3upm6HT9170D1Ev
libupm-ht9170.so.1:_ZN3upm6HT9170D2Ev
libupm-htu21d.so.1:_ZN3upm6HTU21D10sampleDataEv
libupm-htu21d.so.1:_ZN3upm6HTU21D10testSensorEv
libupm-htu21d.so.1:_ZN3upm6HTU21D11convertTempEi
libupm-htu21d.so.1:_ZN3upm6HTU21D11getDewPointEi
libupm-htu21d.so.1:_ZN3upm6HTU21D11getHumidityEi
libupm-htu21d.so.1:_ZN3upm6HTU21D11i2cWriteRegEhh
libupm-htu21d.so.1:_ZN3upm6HTU21D11resetSensorEv
libupm-htu21d.so.1:_ZN3upm6HTU21D12i2cReadReg_8Ei
libupm-htu21d.so.1:_ZN3upm6HTU21D13i2cReadReg_16Ei
libupm-htu21d.so.1:_ZN3upm6HTU21D14getTemperatureEi
libupm-htu21d.so.1:_ZN3upm6HTU21D15getHumidityDataEPfS1_S1_
libupm-htu21d.so.1:_ZN3upm6HTU21D9convertRHEi
libupm-htu21d.so.1:_ZN3upm6HTU21D9getCompRHEi
libupm-htu21d.so.1:_ZN3upm6HTU21D9setHeaterEi
libupm-htu21d.so.1:_ZN3upm6HTU21DC1Eii
libupm-htu21d.so.1:_ZN3upm6HTU21DC2Eii
libupm-hx711.so.1:_ZN3upm5HX71111readAverageEh
libupm-hx711.so.1:_ZN3upm5HX7114readEv
libupm-hx711.so.1:_ZN3upm5HX7114tareEh
libupm-hx711.so.1:_ZN3upm5HX7117setGainEh
libupm-hx711.so.1:_ZN3upm5HX7118getUnitsEh
libupm-hx711.so.1:_ZN3upm5HX7118getValueEh
libupm-hx711.so.1:_ZN3upm5HX7118setScaleEf
libupm-hx711.so.1:_ZN3upm5HX7119setOffsetEl
libupm-hx711.so.1:_ZN3upm5HX711C1Eiih
libupm-hx711.so.1:_ZN3upm5HX711C2Eiih
libupm-hx711.so.1:_ZN3upm5HX711D1Ev
libupm-hx711.so.1:_ZN3upm5HX711D2Ev
libupm-ili9341.so.1:_ZN3upm3GFX10drawCircleEssst
libupm-ili9341.so.1:_ZN3upm3GFX10fillCircleEssst
libupm-ili9341.so.1:_ZN3upm3GFX10fillScreenEt
libupm-ili9341.so.1:_ZN3upm3GFX11setRotationEh
libupm-ili9341.so.1:_ZN3upm3GFX11setTextSizeEh
libupm-ili9341.so.1:_ZN3upm3GFX11setTextWrapEb
libupm-ili9341.so.1:_ZN3upm3GFX12drawTriangleEsssssst
libupm-ili9341.so.1:_ZN3upm3GFX12fillTriangleEsssssst
libupm-ili9341.so.1:_ZN3upm3GFX12setTextColorEt
libupm-ili9341.so.1:_ZN3upm3GFX12setTextColorEtt
libupm-ili9341.so.1:_ZN3upm3GFX13drawFastHLineEssst
libupm-ili9341.so.1:_ZN3upm3GFX13drawFastVLineEssst
libupm-ili9341.so.1:_ZN3upm3GFX13drawRoundRectEssssst
libupm-ili9341.so.1:_ZN3upm3GFX13fillRoundRectEssssst
libupm-ili9341.so.1:_ZN3upm3GFX13invertDisplayEb
libupm-ili9341.so.1:_ZN3upm3GFX16drawCircleHelperEsssht
libupm-ili9341.so.1:_ZN3upm3GFX16fillCircleHelperEssshst
libupm-ili9341.so.1:_ZN3upm3GFX5cp437Eb
libupm-ili9341.so.1:_ZN3upm3GFX5printENSt7__cxx1112basic_stringIcSt11char_traitsIcESaIcEEE
libupm-ili9341.so.1:_ZN3upm3GFX5writeEh
libupm-ili9341.so.1:_ZN3upm3GFX8drawCharEsshtth
libupm-ili9341.so.1:_ZN3upm3GFX8drawLineEsssst
libupm-ili9341.so.1:_ZN3upm3GFX8drawRectEsssst
libupm-ili9341.so.1:_ZN3upm3GFX8fillRectEsssst
libupm-ili9341.so.1:_ZN3upm3GFX9setCursorEss
libupm-ili9341.so.1:_ZN3upm3GFXC1Ess
libupm-ili9341.so.1:_ZN3upm3GFXC2Ess
libupm-ili9341.so.1:_ZN3upm7ILI934110fillScreenEt
libupm-ili9341.so.1:_ZN3upm7ILI934110initModuleEv
libupm-ili9341.so.1:_ZN3upm7ILI934111setRotationEh
libupm-ili9341.so.1:_ZN3upm7ILI934112configModuleEv
libupm-ili9341.so.1:_ZN3upm7ILI934112writecommandEh
libupm-ili9341.so.1:_ZN3upm7ILI934113drawFastHLineEssst
libupm-ili9341.so.1:_ZN3upm7ILI934113drawFastVLineEssst
libupm-ili9341.so.1:_ZN3upm7ILI934113invertDisplayEb
libupm-ili9341.so.1:_ZN3upm7ILI934113setAddrWindowEtttt
libupm-ili9341.so.1:_ZN3upm7ILI934114executeCMDListEPKh
libupm-ili9341.so.1:_ZN3upm7ILI93415dcLowEv
libupm-ili9341.so.1:_ZN3upm7ILI93416dcHighEv
libupm-ili9341.so.1:_ZN3upm7ILI93416rstLowEv
libupm-ili9341.so.1:_ZN3upm7ILI93416sdCSOnEv
libupm-ili9341.so.1:_ZN3upm7ILI93417lcdCSOnEv
libupm-ili9341.so.1:_ZN3upm7ILI93417rstHighEv
libupm-ili9341.so.1:_ZN3upm7ILI93417sdCSOffEv
libupm-ili9341.so.1:_ZN3upm7ILI93418color565Ehhh
libupm-ili9341.so.1:_ZN3upm7ILI93418fillRectEsssst
libupm-ili9341.so.1:_ZN3upm7ILI93418lcdCSOffEv
libupm-ili9341.so.1:_ZN3upm7ILI93419drawPixelEsst
libupm-ili9341.so.1:_ZN3upm7ILI93419writedataEh
libupm-ili9341.so.1:_ZN3upm7ILI9341C1Eiiii
libupm-ili9341.so.1:_ZN3upm7ILI9341C2Eiiii
libupm-ili9341.so.1:_ZNK3upm3GFX10getCursorXEv
libupm-ili9341.so.1:_ZNK3upm3GFX10getCursorYEv
libupm-ili9341.so.1:_ZNK3upm3GFX11getRotationEv
libupm-ili9341.so.1:_ZNK3upm3GFX5widthEv
libupm-ili9341.so.1:_ZNK3upm3GFX6heightEv
libupm-ims.so.1:_ZN3upm3IMS11get_versionEv
libupm-ims.so.1:_ZN3upm3IMS12get_moistureEv
libupm-ims.so.1:_ZN3upm3IMS15get_temperatureEv
libupm-ims.so.1:_ZN3upm3IMS17reset_i2c_addressEh
libupm-ims.so.1:_ZN3upm3IMS4readE15_IMS_RD_COMMAND
libupm-ims.so.1:_ZN3upm3IMS5resetEv
libupm-ims.so.1:_ZN3upm3IMS5sleepEv
libupm-ims.so.1:_ZN3upm3IMS5writeE14IMS_WR_COMMANDh
libupm-ims.so.1:_ZN3upm3IMS9get_lightEv
libupm-ims.so.1:_ZN3upm3IMSC1Ess
libupm-ims.so.1:_ZN3upm3IMSC2Ess
libupm-ina132.so.1:_ZN3upm6INA1325valueEv
libupm-ina132.so.1:_ZN3upm6INA132C1Ei
libupm-ina132.so.1:_ZN3upm6INA132C2Ei
libupm-ina132.so.1:_ZN3upm6INA132D1Ev
libupm-ina132.so.1:_ZN3upm6INA132D2Ev
libupm-isd1820.so.1:_ZN3upm7ISD18204playEb
libupm-isd1820.so.1:_ZN3upm7ISD18206recordEb
libupm-isd1820.so.1:_ZN3upm7ISD1820C1Eii
libupm-isd1820.so.1:_ZN3upm7ISD1820C2Eii
libupm-isd1820.so.1:_ZN3upm7ISD1820D1Ev
libupm-isd1820.so.1:_ZN3upm7ISD1820D2Ev
libupm-itg3200.so.1:_ZN3upm7Itg320010getRawTempEv
libupm-itg3200.so.1:_ZN3upm7Itg320011getRotationEv
libupm-itg3200.so.1:_ZN3upm7Itg320012getRawValuesEv
libupm-itg3200.so.1:_ZN3upm7Itg320014getTemperatureEv
libupm-itg3200.so.1:_ZN3upm7Itg32006updateEv
libupm-itg3200.so.1:_ZN3upm7Itg32009calibrateEv
libupm-itg3200.so.1:_ZN3upm7Itg3200C1Ei
libupm-itg3200.so.1:_ZN3upm7Itg3200C2Ei
libupm-jhd1313m1.so.1:_ZN3upm9Jhd1313m110createCharEhSt6vectorIhSaIhEE
libupm-jhd1313m1.so.1:_ZN3upm9Jhd1313m110displayOffEv
libupm-jhd1313m1.so.1:_ZN3upm9Jhd1313m111backlightOnEv
libupm-jhd1313m1.so.1:_ZN3upm9Jhd1313m112autoscrollOnEv
libupm-jhd1313m1.so.1:_ZN3upm9Jhd1313m112backlightOffEv
libupm-jhd1313m1.so.1:_ZN3upm9Jhd1313m113autoscrollOffEv
libupm-jhd1313m1.so.1:_ZN3upm9Jhd1313m113cursorBlinkOnEv
libupm-jhd1313m1.so.1:_ZN3upm9Jhd1313m114cursorBlinkOffEv
libupm-jhd1313m1.so.1:_ZN3upm9Jhd1313m116entryLeftToRightEv
libupm-jhd1313m1.so.1:_ZN3upm9Jhd1313m116entryRightToLeftEv
libupm-jhd1313m1.so.1:_ZN3upm9Jhd1313m117scrollDisplayLeftEv
libupm-jhd1313m1.so.1:_ZN3upm9Jhd1313m118scrollDisplayRightEv
libupm-jhd1313m1.so.1:_ZN3upm9Jhd1313m14dataEh
libupm-jhd1313m1.so.1:_ZN3upm9Jhd1313m14homeEv
libupm-jhd1313m1.so.1:_ZN3upm9Jhd1313m15clearEv
libupm-jhd1313m1.so.1:_ZN3upm9Jhd1313m15writeENSt7__cxx1112basic_stringIcSt11char_traitsIcESaIcEEE
libupm-jhd1313m1.so.1:_ZN3upm9Jhd1313m16scrollEb
libupm-jhd1313m1.so.1:_ZN3upm9Jhd1313m17commandEh
libupm-jhd1313m1.so.1:_ZN3upm9Jhd1313m18cursorOnEv
libupm-jhd1313m1.so.1:_ZN3upm9Jhd1313m18setColorEhhh
libupm-jhd1313m1.so.1:_ZN3upm9Jhd1313m19cursorOffEv
libupm-jhd1313m1.so.1:_ZN3upm9Jhd1313m19displayOnEv
libupm-jhd1313m1.so.1:_ZN3upm9Jhd1313m19setCursorEii
libupm-jhd1313m1.so.1:_ZN3upm9Jhd1313m1C1Eiii
libupm-jhd1313m1.so.1:_ZN3upm9Jhd1313m1C2Eiii
libupm-jhd1313m1.so.1:_ZN3upm9Jhd1313m1D1Ev
libupm-jhd1313m1.so.1:_ZN3upm9Jhd1313m1D2Ev
libupm-joystick12.so.1:_ZN3upm10Joystick129getXInputEv
libupm-joystick12.so.1:_ZN3upm10Joystick129getYInputEv
libupm-joystick12.so.1:_ZN3upm10Joystick12C1Eii
libupm-joystick12.so.1:_ZN3upm10Joystick12C2Eii
libupm-joystick12.so.1:_ZN3upm10Joystick12D1Ev
libupm-joystick12.so.1:_ZN3upm10Joystick12D2Ev
libupm-kx122.so.1:_ZN3upm5KX12210bufferInitEj11KX122_RES_T19KX122_BUFFER_MODE_T
libupm-kx122.so.1:_ZN3upm5KX12210deviceInitE11KX122_ODR_T11KX122_RES_T13KX122_RANGE_T
libupm-kx122.so.1:_ZN3upm5KX12210disableIIREv
libupm-kx122.so.1:_ZN3upm5KX12210installISREN4mraa4EdgeE21KX122_INTERRUPT_PIN_TiPFvPvES4_
libupm-kx122.so.1:_ZN3upm5KX12210setAverageE11KX122_AVG_T
libupm-kx122.so.1:_ZN3upm5KX12211clearBufferEv
libupm-kx122.so.1:_ZN3upm5KX12212enableBufferEv
libupm-kx122.so.1:_ZN3upm5KX12212uninstallISRE21KX122_INTERRUPT_PIN_T
libupm-kx122.so.1:_ZN3upm5KX12213disableBufferEv
libupm-kx122.so.1:_ZN3upm5KX12213setBufferModeE19KX122_BUFFER_MODE_T
libupm-kx122.so.1:_ZN3upm5KX12213setResolutionE11KX122_RES_T
libupm-kx122.so.1:_ZN3upm5KX12213softwareResetEv
libupm-kx122.so.1:_ZN3upm5KX12214clearInterruptEv
libupm-kx122.so.1:_ZN3upm5KX12215getBufferStatusEv
libupm-kx122.so.1:_ZN3upm5KX12215getSamplePeriodEv
libupm-kx122.so.1:_ZN3upm5KX12215routeInterrupt1Eh
libupm-kx122.so.1:_ZN3upm5KX12215routeInterrupt2Eh
libupm-kx122.so.1:_ZN3upm5KX12215setSensorActiveEv
libupm-kx122.so.1:_ZN3upm5KX12216enableInterrupt1E26KX122_INTERRUPT_POLARITY_T
libupm-kx122.so.1:_ZN3upm5KX12216enableInterrupt2E26KX122_INTERRUPT_POLARITY_T
libupm-kx122.so.1:_ZN3upm5KX12216getBufferSamplesEj
libupm-kx122.so.1:_ZN3upm5KX12216setSensorStandbyEv
libupm-kx122.so.1:_ZN3upm5KX12217disableInterrupt1Ev
libupm-kx122.so.1:_ZN3upm5KX12217disableInterrupt2Ev
libupm-kx122.so.1:_ZN3upm5KX12218getInterruptSourceEv
libupm-kx122.so.1:_ZN3upm5KX12218getInterruptStatusEv
libupm-kx122.so.1:_ZN3upm5KX12218setBufferThresholdEj
libupm-kx122.so.1:_ZN3upm5KX12219getAccelerationDataEPfS1_S1_
libupm-kx122.so.1:_ZN3upm5KX12219getRawBufferSamplesEj
libupm-kx122.so.1:_ZN3upm5KX12219setBufferResolutionE11KX122_RES_T
libupm-kx122.so.1:_ZN3upm5KX12222getRawAccelerationDataEPfS1_S1_
libupm-kx122.so.1:_ZN3upm5KX12224enableDataReadyInterruptEv
libupm-kx122.so.1:_ZN3upm5KX12225disableDataReadyInterruptEv
libupm-kx122.so.1:_ZN3upm5KX12225enableBufferFullInterruptEv
libupm-kx122.so.1:_ZN3upm5KX12225getAccelerationDataVectorEv
libupm-kx122.so.1:_ZN3upm5KX12226disableBufferFullInterruptEv
libupm-kx122.so.1:_ZN3upm5KX1225setBWE12LPRO_STATE_T
libupm-kx122.so.1:_ZN3upm5KX1226setODRE11KX122_ODR_T
libupm-kx122.so.1:_ZN3upm5KX1228selfTestEv
libupm-kx122.so.1:_ZN3upm5KX1229enableIIREv
libupm-kx122.so.1:_ZN3upm5KX1229getWhoAmIEv
libupm-kx122.so.1:_ZN3upm5KX1229setGrangeE13KX122_RANGE_T
libupm-kx122.so.1:_ZN3upm5KX122C1Eiiii
libupm-kx122.so.1:_ZN3upm5KX122C2Eiiii
libupm-kx122.so.1:_ZN3upm5KX122D1Ev
libupm-kx122.so.1:_ZN3upm5KX122D2Ev
libupm-kxcjk1013.so.1:_ZN3upm9KXCJK101310installISREPFvPcPvES2_
libupm-kxcjk1013.so.1:_ZN3upm9KXCJK101312enableBufferEi
libupm-kxcjk1013.so.1:_ZN3upm9KXCJK101312extract3AxisEPcPfS2_S2_
libupm-kxcjk1013.so.1:_ZN3upm9KXCJK101313disableBufferEv
libupm-kxcjk1013.so.1:_ZN3upm9KXCJK101315getChannelValueEPhP16mraa_iio_channel
libupm-kxcjk1013.so.1:_ZN3upm9KXCJK101318enable3AxisChannelEv
libupm-kxcjk1013.so.1:_ZN3upm9KXCJK101320setSamplingFrequencyEf
libupm-kxcjk1013.so.1:_ZN3upm9KXCJK10138setScaleEf
libupm-kxcjk1013.so.1:_ZN3upm9KXCJK1013C1Ei
libupm-kxcjk1013.so.1:_ZN3upm9KXCJK1013C2Ei
libupm-kxcjk1013.so.1:_ZN3upm9KXCJK1013D1Ev
libupm-kxcjk1013.so.1:_ZN3upm9KXCJK1013D2Ev
libupm-kxtj3.so.1:_ZN3upm5KXTJ310InstallIsrE16mraa_gpio_edge_tiPFvPvES2_
libupm-kxtj3.so.1:_ZN3upm5KXTJ310SensorInitE11KXTJ3_ODR_T18KXTJ3_RESOLUTION_T15KXTJ3_G_RANGE_T
libupm-kxtj3.so.1:_ZN3upm5KXTJ312SensorActiveEv
libupm-kxtj3.so.1:_ZN3upm5KXTJ312UninstallIsrEv
libupm-kxtj3.so.1:_ZN3upm5KXTJ313SensorStandbyEv
libupm-kxtj3.so.1:_ZN3upm5KXTJ313SetResolutionE18KXTJ3_RESOLUTION_T
libupm-kxtj3.so.1:_ZN3upm5KXTJ314ClearInterruptEv
libupm-kxtj3.so.1:_ZN3upm5KXTJ314SensorSelfTestEv
libupm-kxtj3.so.1:_ZN3upm5KXTJ315SetOdrForWakeupE18KXTJ3_ODR_WAKEUP_T
libupm-kxtj3.so.1:_ZN3upm5KXTJ317EnableWakeUpLatchEv
libupm-kxtj3.so.1:_ZN3upm5KXTJ318DisableWakeUpLatchEv
libupm-kxtj3.so.1:_ZN3upm5KXTJ318EnableInterruptPinE26KXTJ3_INTERRUPT_POLARITY_T26KXTJ3_INTERRUPT_RESPONSE_T
libupm-kxtj3.so.1:_ZN3upm5KXTJ318GetInterruptSourceEv
libupm-kxtj3.so.1:_ZN3upm5KXTJ318GetInterruptStatusEv
libupm-kxtj3.so.1:_ZN3upm5KXTJ319DisableInterruptPinEv
libupm-kxtj3.so.1:_ZN3upm5KXTJ319GetWakeUpMotionTimeEv
libupm-kxtj3.so.1:_ZN3upm5KXTJ319SensorSoftwareResetEv
libupm-kxtj3.so.1:_ZN3upm5KXTJ319SetInerruptResponseE26KXTJ3_INTERRUPT_RESPONSE_T
libupm-kxtj3.so.1:_ZN3upm5KXTJ319SetWakeUpMotionTimeEf
libupm-kxtj3.so.1:_ZN3upm5KXTJ320ReadInterruptSource1Ev
libupm-kxtj3.so.1:_ZN3upm5KXTJ320SetInterruptPolarityE26KXTJ3_INTERRUPT_POLARITY_T
libupm-kxtj3.so.1:_ZN3upm5KXTJ321EnableWakeUpInterruptEv
libupm-kxtj3.so.1:_ZN3upm5KXTJ321GetAccelerationVectorEv
libupm-kxtj3.so.1:_ZN3upm5KXTJ321GetWakeUpSamplePeriodEv
libupm-kxtj3.so.1:_ZN3upm5KXTJ322DisableWakeUpInterruptEv
libupm-kxtj3.so.1:_ZN3upm5KXTJ322GetWakeUpAxisDirectionEv
libupm-kxtj3.so.1:_ZN3upm5KXTJ322SetWakeUpMotionCounterEh
libupm-kxtj3.so.1:_ZN3upm5KXTJ324EnableDataReadyInterruptEv
libupm-kxtj3.so.1:_ZN3upm5KXTJ324GetAccelerationRawVectorEv
libupm-kxtj3.so.1:_ZN3upm5KXTJ324GetWakeUpNonActivityTimeEv
libupm-kxtj3.so.1:_ZN3upm5KXTJ324GetWakeUpThresholdGRangeEv
libupm-kxtj3.so.1:_ZN3upm5KXTJ324SetWakeUpNonActivityTimeEf
libupm-kxtj3.so.1:_ZN3upm5KXTJ324SetWakeUpThresholdGRangeEf
libupm-kxtj3.so.1:_ZN3upm5KXTJ325DisableDataReadyInterruptEv
libupm-kxtj3.so.1:_ZN3upm5KXTJ325SetWakeUpThresholdCounterEt
libupm-kxtj3.so.1:_ZN3upm5KXTJ327GetAccelerationSamplePeriodEv
libupm-kxtj3.so.1:_ZN3upm5KXTJ327SetWakeUpNonActivityCounterEh
libupm-kxtj3.so.1:_ZN3upm5KXTJ328SelfTestDigitalCommunicationEv
libupm-kxtj3.so.1:_ZN3upm5KXTJ331EnableWakeUpSingleAxisDirectionE21KXTJ3_WAKEUP_SOURCE_T
libupm-kxtj3.so.1:_ZN3upm5KXTJ332DisableWakeUpSingleAxisDirectionE21KXTJ3_WAKEUP_SOURCE_T
libupm-kxtj3.so.1:_ZN3upm5KXTJ36SetOdrE11KXTJ3_ODR_T
libupm-kxtj3.so.1:_ZN3upm5KXTJ39GetWhoAmIEv
libupm-kxtj3.so.1:_ZN3upm5KXTJ39SetGRangeE15KXTJ3_G_RANGE_T
libupm-kxtj3.so.1:_ZN3upm5KXTJ3C1Eih
libupm-kxtj3.so.1:_ZN3upm5KXTJ3C2Eih
libupm-kxtj3.so.1:_ZN3upm5KXTJ3D0Ev
libupm-kxtj3.so.1:_ZN3upm5KXTJ3D1Ev
libupm-kxtj3.so.1:_ZN3upm5KXTJ3D2Ev
libupm-l298.so.1:_ZN3upm4L29811setPeriodMSEi
libupm-l298.so.1:_ZN3upm4L29811stepperStepEv
libupm-l298.so.1:_ZN3upm4L29812setDirectionENS0_16L298_DIRECTION_TE
libupm-l298.so.1:_ZN3upm4L29812stepperStepsEj
libupm-l298.so.1:_ZN3upm4L2986enableEb
libupm-l298.so.1:_ZN3upm4L2988setSpeedEi
libupm-l298.so.1:_ZN3upm4L2989getMillisEv
libupm-l298.so.1:_ZN3upm4L2989initClockEv
libupm-l298.so.1:_ZN3upm4L298C1Eiii
libupm-l298.so.1:_ZN3upm4L298C1Eiiiiii
libupm-l298.so.1:_ZN3upm4L298C2Eiii
libupm-l298.so.1:_ZN3upm4L298C2Eiiiiii
libupm-l298.so.1:_ZN3upm4L298D1Ev
libupm-l298.so.1:_ZN3upm4L298D2Ev
libupm-l3gd20.so.1:_ZN3upm6L3GD2010installISREPFvPcPvES2_
libupm-l3gd20.so.1:_ZN3upm6L3GD2011gyroCollectEfff
libupm-l3gd20.so.1:_ZN3upm6L3GD2012enableBufferEi
libupm-l3gd20.so.1:_ZN3upm6L3GD2012extract3AxisEPcPfS2_S2_
libupm-l3gd20.so.1:_ZN3upm6L3GD2012getGyroscopeEPfS1_S1_
libupm-l3gd20.so.1:_ZN3upm6L3GD2012setPowerModeENS0_13POWER_MODES_TE
libupm-l3gd20.so.1:_ZN3upm6L3GD2013disableBufferEv
libupm-l3gd20.so.1:_ZN3upm6L3GD2013getStatusBitsEv
libupm-l3gd20.so.1:_ZN3upm6L3GD2013initCalibrateEv
libupm-l3gd20.so.1:_ZN3upm6L3GD2014getTemperatureEb
libupm-l3gd20.so.1:_ZN3upm6L3GD2015getChannelValueEPhP16mraa_iio_channel
libupm-l3gd20.so.1:_ZN3upm6L3GD2017getCalibratedDataEPfS1_S1_
libupm-l3gd20.so.1:_ZN3upm6L3GD2017gyroDenoiseMedianEPfS1_S1_
libupm-l3gd20.so.1:_ZN3upm6L3GD2018enable3AxisChannelEv
libupm-l3gd20.so.1:_ZN3upm6L3GD2018loadCalibratedDataEfff
libupm-l3gd20.so.1:_ZN3upm6L3GD2019getCalibratedStatusEv
libupm-l3gd20.so.1:_ZN3upm6L3GD2020setSamplingFrequencyEf
libupm-l3gd20.so.1:_ZN3upm6L3GD2023clampGyroReadingsToZeroEPfS1_S1_
libupm-l3gd20.so.1:_ZN3upm6L3GD206medianEPfj
libupm-l3gd20.so.1:_ZN3upm6L3GD206setODRENS0_12ODR_CUTOFF_TE
libupm-l3gd20.so.1:_ZN3upm6L3GD206updateEv
libupm-l3gd20.so.1:_ZN3upm6L3GD207readRegEh
libupm-l3gd20.so.1:_ZN3upm6L3GD208readRegsEhPhi
libupm-l3gd20.so.1:_ZN3upm6L3GD208setRangeENS0_4FS_TE
libupm-l3gd20.so.1:_ZN3upm6L3GD208setScaleEf
libupm-l3gd20.so.1:_ZN3upm6L3GD208writeRegEhh
libupm-l3gd20.so.1:_ZN3upm6L3GD209enableBDUEb
libupm-l3gd20.so.1:_ZN3upm6L3GD209getChipIDEv
libupm-l3gd20.so.1:_ZN3upm6L3GD209partitionEPfjjj
libupm-l3gd20.so.1:_ZN3upm6L3GD20C1Ei
libupm-l3gd20.so.1:_ZN3upm6L3GD20C1Eii
libupm-l3gd20.so.1:_ZN3upm6L3GD20C2Ei
libupm-l3gd20.so.1:_ZN3upm6L3GD20C2Eii
libupm-l3gd20.so.1:_ZN3upm6L3GD20D1Ev
libupm-l3gd20.so.1:_ZN3upm6L3GD20D2Ev
libupm-lcd.so.1:_ZN3upm3LCD4nameB5cxx11Ev
libupm-lcd.so.1:_ZN3upm3LCD5writeEiiNSt7__cxx1112basic_stringIcSt11char_traitsIcESaIcEEE
libupm-lcd.so.1:_ZN3upm3LCDC1Ev
libupm-lcd.so.1:_ZN3upm3LCDC2Ev
libupm-lcd.so.1:_ZN3upm3LCDD0Ev
libupm-lcd.so.1:_ZN3upm3LCDD1Ev
libupm-lcd.so.1:_ZN3upm3LCDD2Ev
libupm-lcd.so.1:_ZN3upm6EBOLED10drawCircleEsssh
libupm-lcd.so.1:_ZN3upm6EBOLED10fillScreenEh
libupm-lcd.so.1:_ZN3upm6EBOLED11setTextSizeEh
libupm-lcd.so.1:_ZN3upm6EBOLED11setTextWrapEh
libupm-lcd.so.1:_ZN3upm6EBOLED12drawTriangleEaaaaaah
libupm-lcd.so.1:_ZN3upm6EBOLED12setTextColorEh
libupm-lcd.so.1:_ZN3upm6EBOLED13drawRectangleEaahhh
libupm-lcd.so.1:_ZN3upm6EBOLED16drawCircleFilledEaash
libupm-lcd.so.1:_ZN3upm6EBOLED16drawLineVerticalEaahh
libupm-lcd.so.1:_ZN3upm6EBOLED16drawRoundCornersEaashh
libupm-lcd.so.1:_ZN3upm6EBOLED17clearScreenBufferEv
libupm-lcd.so.1:_ZN3upm6EBOLED17setAddressingModeENS_21displayAddressingModeE
libupm-lcd.so.1:_ZN3upm6EBOLED18drawLineHorizontalEaahh
libupm-lcd.so.1:_ZN3upm6EBOLED18drawTriangleFilledEaaaaaah
libupm-lcd.so.1:_ZN3upm6EBOLED19drawRectangleFilledEaahhh
libupm-lcd.so.1:_ZN3upm6EBOLED20drawRoundedRectangleEaaaash
libupm-lcd.so.1:_ZN3upm6EBOLED24drawRoundedCornersFilledEaashsh
libupm-lcd.so.1:_ZN3upm6EBOLED4dataEt
libupm-lcd.so.1:_ZN3upm6EBOLED4homeEv
libupm-lcd.so.1:_ZN3upm6EBOLED5clearEv
libupm-lcd.so.1:_ZN3upm6EBOLED5writeENSt7__cxx1112basic_stringIcSt11char_traitsIcESaIcEEE
libupm-lcd.so.1:_ZN3upm6EBOLED7commandEh
libupm-lcd.so.1:_ZN3upm6EBOLED7refreshEv
libupm-lcd.so.1:_ZN3upm6EBOLED8drawCharEhhhhh
libupm-lcd.so.1:_ZN3upm6EBOLED8drawLineEaaaah
libupm-lcd.so.1:_ZN3upm6EBOLED9drawPixelEaah
libupm-lcd.so.1:_ZN3upm6EBOLED9setCursorEii
libupm-lcd.so.1:_ZN3upm6EBOLEDC1Eiii
libupm-lcd.so.1:_ZN3upm6EBOLEDC2Eiii
libupm-lcd.so.1:_ZN3upm6EBOLEDD0Ev
libupm-lcd.so.1:_ZN3upm6EBOLEDD1Ev
libupm-lcd.so.1:_ZN3upm6EBOLEDD2Ev
libupm-lcd.so.1:_ZN3upm7SSD130610stopscrollEv
libupm-lcd.so.1:_ZN3upm7SSD130615startscrollleftEhh
libupm-lcd.so.1:_ZN3upm7SSD130616setNormalDisplayEv
libupm-lcd.so.1:_ZN3upm7SSD130616startscrollrightEhh
libupm-lcd.so.1:_ZN3upm7SSD130617setAddressingModeENS_21displayAddressingModeE
libupm-lcd.so.1:_ZN3upm7SSD130619startscrolldiagleftEhh
libupm-lcd.so.1:_ZN3upm7SSD130620startscrolldiagrightEhh
libupm-lcd.so.1:_ZN3upm7SSD13063dimEb
libupm-lcd.so.1:_ZN3upm7SSD13064drawEPhi
libupm-lcd.so.1:_ZN3upm7SSD13064homeEv
libupm-lcd.so.1:_ZN3upm7SSD13065clearEv
libupm-lcd.so.1:_ZN3upm7SSD13065writeENSt7__cxx1112basic_stringIcSt11char_traitsIcESaIcEEE
libupm-lcd.so.1:_ZN3upm7SSD13066invertEb
libupm-lcd.so.1:_ZN3upm7SSD13069setCursorEii
libupm-lcd.so.1:_ZN3upm7SSD13069writeCharEh
libupm-lcd.so.1:_ZN3upm7SSD1306C1Eii
libupm-lcd.so.1:_ZN3upm7SSD1306C2Eii
libupm-lcd.so.1:_ZN3upm7SSD1306D0Ev
libupm-lcd.so.1:_ZN3upm7SSD1306D1Ev
libupm-lcd.so.1:_ZN3upm7SSD1306D2Ev
libupm-lcd.so.1:_ZN3upm7SSD130816setNormalDisplayEv
libupm-lcd.so.1:_ZN3upm7SSD130817setAddressingModeENS_21displayAddressingModeE
libupm-lcd.so.1:_ZN3upm7SSD13084drawEPhi
libupm-lcd.so.1:_ZN3upm7SSD13084homeEv
libupm-lcd.so.1:_ZN3upm7SSD13085clearEv
libupm-lcd.so.1:_ZN3upm7SSD13085writeENSt7__cxx1112basic_stringIcSt11char_traitsIcESaIcEEE
libupm-lcd.so.1:_ZN3upm7SSD13089setCursorEii
libupm-lcd.so.1:_ZN3upm7SSD13089writeCharEh
libupm-lcd.so.1:_ZN3upm7SSD1308C1Eii
libupm-lcd.so.1:_ZN3upm7SSD1308C2Eii
libupm-lcd.so.1:_ZN3upm7SSD1308D0Ev
libupm-lcd.so.1:_ZN3upm7SSD1308D1Ev
libupm-lcd.so.1:_ZN3upm7SSD1308D2Ev
libupm-lcd.so.1:_ZN3upm7SSD132712setGrayLevelEh
libupm-lcd.so.1:_ZN3upm7SSD132715setVerticalModeEv
libupm-lcd.so.1:_ZN3upm7SSD132716setNormalDisplayEv
libupm-lcd.so.1:_ZN3upm7SSD132717setHorizontalModeEv
libupm-lcd.so.1:_ZN3upm7SSD13274drawEPhi
libupm-lcd.so.1:_ZN3upm7SSD13274homeEv
libupm-lcd.so.1:_ZN3upm7SSD13275clearEv
libupm-lcd.so.1:_ZN3upm7SSD13275writeENSt7__cxx1112basic_stringIcSt11char_traitsIcESaIcEEE
libupm-lcd.so.1:_ZN3upm7SSD13279setCursorEii
libupm-lcd.so.1:_ZN3upm7SSD13279writeCharEh
libupm-lcd.so.1:_ZN3upm7SSD1327C1Eii
libupm-lcd.so.1:_ZN3upm7SSD1327C2Eii
libupm-lcd.so.1:_ZN3upm7SSD1327D0Ev
libupm-lcd.so.1:_ZN3upm7SSD1327D1Ev
libupm-lcd.so.1:_ZN3upm7SSD1327D2Ev
libupm-lcdks.so.1:_ZN3upm5LCDKS10createCharEhSt6vectorIhSaIhEE
libupm-lcdks.so.1:_ZN3upm5LCDKS10displayOffEv
libupm-lcdks.so.1:_ZN3upm5LCDKS11backlightOnEv
libupm-lcdks.so.1:_ZN3upm5LCDKS11getKeyValueEv
libupm-lcdks.so.1:_ZN3upm5LCDKS12autoscrollOnEv
libupm-lcdks.so.1:_ZN3upm5LCDKS12backlightOffEv
libupm-lcdks.so.1:_ZN3upm5LCDKS13autoscrollOffEv
libupm-lcdks.so.1:_ZN3upm5LCDKS13cursorBlinkOnEv
libupm-lcdks.so.1:_ZN3upm5LCDKS14cursorBlinkOffEv
libupm-lcdks.so.1:_ZN3upm5LCDKS16entryLeftToRightEv
libupm-lcdks.so.1:_ZN3upm5LCDKS16entryRightToLeftEv
libupm-lcdks.so.1:_ZN3upm5LCDKS17scrollDisplayLeftEv
libupm-lcdks.so.1:_ZN3upm5LCDKS18scrollDisplayRightEv
libupm-lcdks.so.1:_ZN3upm5LCDKS4homeEv
libupm-lcdks.so.1:_ZN3upm5LCDKS5clearEv
libupm-lcdks.so.1:_ZN3upm5LCDKS5writeENSt7__cxx1112basic_stringIcSt11char_traitsIcESaIcEEE
libupm-lcdks.so.1:_ZN3upm5LCDKS8cursorOnEv
libupm-lcdks.so.1:_ZN3upm5LCDKS9cursorOffEv
libupm-lcdks.so.1:_ZN3upm5LCDKS9displayOnEv
libupm-lcdks.so.1:_ZN3upm5LCDKS9setCursorEii
libupm-lcdks.so.1:_ZN3upm5LCDKSC1Eiiiiiiii
libupm-lcdks.so.1:_ZN3upm5LCDKSC2Eiiiiiiii
libupm-lcdks.so.1:_ZN3upm5LCDKSD1Ev
libupm-lcdks.so.1:_ZN3upm5LCDKSD2Ev
libupm-lcm1602.so.1:_ZN3upm7Lcm160210createCharEhSt6vectorIhSaIhEE
libupm-lcm1602.so.1:_ZN3upm7Lcm160210displayOffEv
libupm-lcm1602.so.1:_ZN3upm7Lcm160211backlightOnEv
libupm-lcm1602.so.1:_ZN3upm7Lcm160212autoscrollOnEv
libupm-lcm1602.so.1:_ZN3upm7Lcm160212backlightOffEv
libupm-lcm1602.so.1:_ZN3upm7Lcm160213autoscrollOffEv
libupm-lcm1602.so.1:_ZN3upm7Lcm160213cursorBlinkOnEv
libupm-lcm1602.so.1:_ZN3upm7Lcm160214cursorBlinkOffEv
libupm-lcm1602.so.1:_ZN3upm7Lcm160216entryLeftToRightEv
libupm-lcm1602.so.1:_ZN3upm7Lcm160216entryRightToLeftEv
libupm-lcm1602.so.1:_ZN3upm7Lcm160217scrollDisplayLeftEv
libupm-lcm1602.so.1:_ZN3upm7Lcm160218scrollDisplayRightEv
libupm-lcm1602.so.1:_ZN3upm7Lcm16024dataEh
libupm-lcm1602.so.1:_ZN3upm7Lcm16024homeEv
libupm-lcm1602.so.1:_ZN3upm7Lcm16025clearEv
libupm-lcm1602.so.1:_ZN3upm7Lcm16025writeENSt7__cxx1112basic_stringIcSt11char_traitsIcESaIcEEE
libupm-lcm1602.so.1:_ZN3upm7Lcm16027commandEh
libupm-lcm1602.so.1:_ZN3upm7Lcm16028cursorOnEv
libupm-lcm1602.so.1:_ZN3upm7Lcm16029cursorOffEv
libupm-lcm1602.so.1:_ZN3upm7Lcm16029displayOnEv
libupm-lcm1602.so.1:_ZN3upm7Lcm16029setCursorEii
libupm-lcm1602.so.1:_ZN3upm7Lcm1602C1Eiibhh
libupm-lcm1602.so.1:_ZN3upm7Lcm1602C1Eiiiiiihh
libupm-lcm1602.so.1:_ZN3upm7Lcm1602C2Eiibhh
libupm-lcm1602.so.1:_ZN3upm7Lcm1602C2Eiiiiiihh
libupm-lcm1602.so.1:_ZN3upm7Lcm1602D1Ev
libupm-lcm1602.so.1:_ZN3upm7Lcm1602D2Ev
libupm-ldt0028.so.1:_ZN3upm7LDT00284nameB5cxx11Ev
libupm-ldt0028.so.1:_ZN3upm7LDT00289getSampleEv
libupm-ldt0028.so.1:_ZN3upm7LDT0028C1Ej
libupm-ldt0028.so.1:_ZN3upm7LDT0028C2Ej
libupm-ldt0028.so.1:_ZN3upm7LDT0028D1Ev
libupm-ldt0028.so.1:_ZN3upm7LDT0028D2Ev
libupm-led.so.1:_ZN3upm3Led2onEv
libupm-led.so.1:_ZN3upm3Led3offEv
libupm-led.so.1:_ZN3upm3Led5writeEi
libupm-led.so.1:_ZN3upm3LedC1ENSt7__cxx1112basic_stringIcSt11char_traitsIcESaIcEEE
libupm-led.so.1:_ZN3upm3LedC1Ei
libupm-led.so.1:_ZN3upm3LedC2ENSt7__cxx1112basic_stringIcSt11char_traitsIcESaIcEEE
libupm-led.so.1:_ZN3upm3LedC2Ei
libupm-led.so.1:_ZN3upm3LedD1Ev
libupm-led.so.1:_ZN3upm3LedD2Ev
libupm-lidarlitev3.so.1:_ZN3upm11LIDARLITEV311getDistanceEv
libupm-lidarlitev3.so.1:_ZN3upm11LIDARLITEV311i2cWriteRegEhh
libupm-lidarlitev3.so.1:_ZN3upm11LIDARLITEV312i2cReadReg_8Ei
libupm-lidarlitev3.so.1:_ZN3upm11LIDARLITEV313i2cReadReg_16Ei
libupm-lidarlitev3.so.1:_ZN3upm11LIDARLITEV34readEib
libupm-lidarlitev3.so.1:_ZN3upm11LIDARLITEV3C1Eii
libupm-lidarlitev3.so.1:_ZN3upm11LIDARLITEV3C2Eii
libupm-light.so.1:_ZN3upm5Light11getRawVoltsEv
libupm-light.so.1:_ZN3upm5Light13getNormalizedEv
libupm-light.so.1:_ZN3upm5Light5valueEv
libupm-light.so.1:_ZN3upm5Light7getArefEv
libupm-light.so.1:_ZN3upm5Light7setArefEf
libupm-light.so.1:_ZN3upm5Light8getScaleEv
libupm-light.so.1:_ZN3upm5Light8setScaleEf
libupm-light.so.1:_ZN3upm5Light9getOffsetEv
libupm-light.so.1:_ZN3upm5Light9raw_valueEv
libupm-light.so.1:_ZN3upm5Light9setOffsetEf
libupm-light.so.1:_ZN3upm5LightC1Ej
libupm-light.so.1:_ZN3upm5LightC2Ej
libupm-light.so.1:_ZN3upm5LightD1Ev
libupm-light.so.1:_ZN3upm5LightD2Ev
libupm-linefinder.so.1:_ZN3upm10LineFinder13blackDetectedEv
libupm-linefinder.so.1:_ZN3upm10LineFinder13whiteDetectedEv
libupm-linefinder.so.1:_ZN3upm10LineFinderC1Ei
libupm-linefinder.so.1:_ZN3upm10LineFinderC2Ei
libupm-linefinder.so.1:_ZN3upm10LineFinderD1Ev
libupm-linefinder.so.1:_ZN3upm10LineFinderD2Ev
libupm-lis2ds12.so.1:_ZN3upm8LIS2DS1210installISRE25LIS2DS12_INTERRUPT_PINS_TiN4mraa4EdgeEPFvPvES4_
libupm-lis2ds12.so.1:_ZN3upm8LIS2DS1212setFullScaleE13LIS2DS12_FS_T
libupm-lis2ds12.so.1:_ZN3upm8LIS2DS1212uninstallISRE25LIS2DS12_INTERRUPT_PINS_T
libupm-lis2ds12.so.1:_ZN3upm8LIS2DS1213setInt1ConfigEh
libupm-lis2ds12.so.1:_ZN3upm8LIS2DS1213setInt2ConfigEh
libupm-lis2ds12.so.1:_ZN3upm8LIS2DS1214getTemperatureEb
libupm-lis2ds12.so.1:_ZN3upm8LIS2DS1216getAccelerometerEPfS1_S1_
libupm-lis2ds12.so.1:_ZN3upm8LIS2DS1216getAccelerometerEv
libupm-lis2ds12.so.1:_ZN3upm8LIS2DS1217enableHPFilteringEb
libupm-lis2ds12.so.1:_ZN3upm8LIS2DS1220setInterruptPushPullEb
libupm-lis2ds12.so.1:_ZN3upm8LIS2DS1222setInterruptActiveHighEb
libupm-lis2ds12.so.1:_ZN3upm8LIS2DS1223enableInterruptLatchingEb
libupm-lis2ds12.so.1:_ZN3upm8LIS2DS124initE14LIS2DS12_ODR_T13LIS2DS12_FS_T
libupm-lis2ds12.so.1:_ZN3upm8LIS2DS125resetEv
libupm-lis2ds12.so.1:_ZN3upm8LIS2DS126setODRE14LIS2DS12_ODR_T
libupm-lis2ds12.so.1:_ZN3upm8LIS2DS126updateEv
libupm-lis2ds12.so.1:_ZN3upm8LIS2DS127readRegEh
libupm-lis2ds12.so.1:_ZN3upm8LIS2DS128readRegsEhPhi
libupm-lis2ds12.so.1:_ZN3upm8LIS2DS128writeRegEhh
libupm-lis2ds12.so.1:_ZN3upm8LIS2DS129getChipIDEv
libupm-lis2ds12.so.1:_ZN3upm8LIS2DS129getStatusEv
libupm-lis2ds12.so.1:_ZN3upm8LIS2DS12C1Eiii
libupm-lis2ds12.so.1:_ZN3upm8LIS2DS12C2Eiii
libupm-lis2ds12.so.1:_ZN3upm8LIS2DS12D0Ev
libupm-lis2ds12.so.1:_ZN3upm8LIS2DS12D1Ev
libupm-lis2ds12.so.1:_ZN3upm8LIS2DS12D2Ev
libupm-lis3dh.so.1:_ZN3upm6LIS3DH10enableAxesEbbb
libupm-lis3dh.so.1:_ZN3upm6LIS3DH10installISRE23LIS3DH_INTERRUPT_PINS_TiN4mraa4EdgeEPFvPvES4_
libupm-lis3dh.so.1:_ZN3upm6LIS3DH12enableHRModeEb
libupm-lis3dh.so.1:_ZN3upm6LIS3DH12enableLPModeEb
libupm-lis3dh.so.1:_ZN3upm6LIS3DH12getStatusAuxEv
libupm-lis3dh.so.1:_ZN3upm6LIS3DH12setFullScaleE11LIS3DH_FS_T
libupm-lis3dh.so.1:_ZN3upm6LIS3DH12uninstallISRE23LIS3DH_INTERRUPT_PINS_T
libupm-lis3dh.so.1:_ZN3upm6LIS3DH13enableBDUModeEb
libupm-lis3dh.so.1:_ZN3upm6LIS3DH13setInt1ConfigEh
libupm-lis3dh.so.1:_ZN3upm6LIS3DH13setInt2ConfigEh
libupm-lis3dh.so.1:_ZN3upm6LIS3DH14getTemperatureEb
libupm-lis3dh.so.1:_ZN3upm6LIS3DH16enableNormalModeEv
libupm-lis3dh.so.1:_ZN3upm6LIS3DH16getAccelerometerEPfS1_S1_
libupm-lis3dh.so.1:_ZN3upm6LIS3DH16getAccelerometerEv
libupm-lis3dh.so.1:_ZN3upm6LIS3DH17enableHPFilteringEb
libupm-lis3dh.so.1:_ZN3upm6LIS3DH17enableTemperatureEb
libupm-lis3dh.so.1:_ZN3upm6LIS3DH22setInterruptActiveHighEb
libupm-lis3dh.so.1:_ZN3upm6LIS3DH23enableInterruptLatchingEbb
libupm-lis3dh.so.1:_ZN3upm6LIS3DH4initE12LIS3DH_ODR_T11LIS3DH_FS_Tb
libupm-lis3dh.so.1:_ZN3upm6LIS3DH6setODRE12LIS3DH_ODR_T
libupm-lis3dh.so.1:_ZN3upm6LIS3DH6updateEv
libupm-lis3dh.so.1:_ZN3upm6LIS3DH7readRegEh
libupm-lis3dh.so.1:_ZN3upm6LIS3DH8readRegsEhPhi
libupm-lis3dh.so.1:_ZN3upm6LIS3DH8writeRegEhh
libupm-lis3dh.so.1:_ZN3upm6LIS3DH9enableADCEb
libupm-lis3dh.so.1:_ZN3upm6LIS3DH9getChipIDEv
libupm-lis3dh.so.1:_ZN3upm6LIS3DH9getStatusEv
libupm-lis3dh.so.1:_ZN3upm6LIS3DHC1Eiii
libupm-lis3dh.so.1:_ZN3upm6LIS3DHC2Eiii
libupm-lis3dh.so.1:_ZN3upm6LIS3DHD0Ev
libupm-lis3dh.so.1:_ZN3upm6LIS3DHD1Ev
libupm-lis3dh.so.1:_ZN3upm6LIS3DHD2Ev
libupm-lm35.so.1:_ZN3upm4LM3514getTemperatureEv
libupm-lm35.so.1:_ZN3upm4LM358setScaleEf
libupm-lm35.so.1:_ZN3upm4LM359setOffsetEf
libupm-lm35.so.1:_ZN3upm4LM35C1Eif
libupm-lm35.so.1:_ZN3upm4LM35C2Eif
libupm-lm35.so.1:_ZN3upm4LM35D1Ev
libupm-lm35.so.1:_ZN3upm4LM35D2Ev
libupm-lol.so.1:_Z10clear_gpioi
libupm-lol.so.1:_Z14set_strong_onei
libupm-lol.so.1:_Z15set_strong_zeroi
libupm-lol.so.1:_Z16clear_prev_cyclei
libupm-lol.so.1:_Z7do_drawPv
libupm-lol.so.1:_ZN3upm3LoL14getFramebufferEv
libupm-lol.so.1:_ZN3upm3LoL8getPixelEii
libupm-lol.so.1:_ZN3upm3LoL8setPixelEiib
libupm-lol.so.1:_ZN3upm3LoLC1Ev
libupm-lol.so.1:_ZN3upm3LoLC2Ev
libupm-lol.so.1:_ZN3upm3LoLD1Ev
libupm-lol.so.1:_ZN3upm3LoLD2Ev
libupm-loudness.so.1:_ZN3upm8Loudness8loudnessEv
libupm-loudness.so.1:_ZN3upm8LoudnessC1Eif
libupm-loudness.so.1:_ZN3upm8LoudnessC2Eif
libupm-loudness.so.1:_ZN3upm8LoudnessD1Ev
libupm-loudness.so.1:_ZN3upm8LoudnessD2Ev
libupm-lp8860.so.1:_ZN3upm6LP886010loadEEPROMEv
libupm-lp8860.so.1:_ZN3upm6LP886010setPowerOnEv
libupm-lp8860.so.1:_ZN3upm6LP886011i2cReadByteEh
libupm-lp8860.so.1:_ZN3upm6LP886011isAvailableEv
libupm-lp8860.so.1:_ZN3upm6LP886011setPowerOffEv
libupm-lp8860.so.1:_ZN3upm6LP886012i2cWriteByteEii
libupm-lp8860.so.1:_ZN3upm6LP886013getBrightnessEv
libupm-lp8860.so.1:_ZN3upm6LP886013i2cReadBufferEiPhi
libupm-lp8860.so.1:_ZN3upm6LP886013setBrightnessEi
libupm-lp8860.so.1:_ZN3upm6LP886014i2cWriteBufferEiPhi
libupm-lp8860.so.1:_ZN3upm6LP886015allowMaxCurrentEv
libupm-lp8860.so.1:_ZN3upm6LP88609isPoweredEv
libupm-lp8860.so.1:_ZN3upm6LP8860C1Eii
libupm-lp8860.so.1:_ZN3upm6LP8860C2Eii
libupm-lp8860.so.1:_ZN3upm6LP8860D0Ev
libupm-lp8860.so.1:_ZN3upm6LP8860D1Ev
libupm-lp8860.so.1:_ZN3upm6LP8860D2Ev
libupm-lp8860.so.1:_ZTv0_n32_N3upm6LP8860D0Ev
libupm-lp8860.so.1:_ZTv0_n32_N3upm6LP8860D1Ev
libupm-lpd8806.so.1:_ZN3upm7LPD880613setPixelColorEthhh
libupm-lpd8806.so.1:_ZN3upm7LPD880614getStripLengthEv
libupm-lpd8806.so.1:_ZN3upm7LPD88064CSOnEv
libupm-lpd8806.so.1:_ZN3upm7LPD88064showEv
libupm-lpd8806.so.1:_ZN3upm7LPD88065CSOffEv
libupm-lpd8806.so.1:_ZN3upm7LPD8806C1Eiit
libupm-lpd8806.so.1:_ZN3upm7LPD8806C2Eiit
libupm-lpd8806.so.1:_ZN3upm7LPD8806D1Ev
libupm-lpd8806.so.1:_ZN3upm7LPD8806D2Ev
libupm-lsm303agr.so.1:_ZN3upm9LSM303AGR10installISRE26LSM303AGR_INTERRUPT_PINS_TiN4mraa4EdgeEPFvPvES4_
libupm-lsm303agr.so.1:_ZN3upm9LSM303AGR12setFullScaleE16LSM303AGR_A_FS_T
libupm-lsm303agr.so.1:_ZN3upm9LSM303AGR12setPowerModeE22LSM303AGR_POWER_MODE_T
libupm-lsm303agr.so.1:_ZN3upm9LSM303AGR12uninstallISRE26LSM303AGR_INTERRUPT_PINS_T
libupm-lsm303agr.so.1:_ZN3upm9LSM303AGR14getTemperatureEv
libupm-lsm303agr.so.1:_ZN3upm9LSM303AGR15getMagnetometerEPfS1_S1_
libupm-lsm303agr.so.1:_ZN3upm9LSM303AGR15getMagnetometerEv
libupm-lsm303agr.so.1:_ZN3upm9LSM303AGR16getAccelerometerEPfS1_S1_
libupm-lsm303agr.so.1:_ZN3upm9LSM303AGR16getAccelerometerEv
libupm-lsm303agr.so.1:_ZN3upm9LSM303AGR18setMagnetometerODRE23LSM303AGR_CFG_A_M_ODR_T
libupm-lsm303agr.so.1:_ZN3upm9LSM303AGR19setAccelerometerODRE17LSM303AGR_A_ODR_T
libupm-lsm303agr.so.1:_ZN3upm9LSM303AGR21getMagnetometerIntSrcEv
libupm-lsm303agr.so.1:_ZN3upm9LSM303AGR23getAccelerometerInt1SrcEv
libupm-lsm303agr.so.1:_ZN3upm9LSM303AGR23getAccelerometerInt2SrcEv
libupm-lsm303agr.so.1:_ZN3upm9LSM303AGR24getMagnetometerIntConfigEv
libupm-lsm303agr.so.1:_ZN3upm9LSM303AGR24setMagnetometerIntConfigEh
libupm-lsm303agr.so.1:_ZN3upm9LSM303AGR26getAccelerometerInt1ConfigEv
libupm-lsm303agr.so.1:_ZN3upm9LSM303AGR26getAccelerometerInt2ConfigEv
libupm-lsm303agr.so.1:_ZN3upm9LSM303AGR26setAccelerometerInt1ConfigEh
libupm-lsm303agr.so.1:_ZN3upm9LSM303AGR26setAccelerometerInt2ConfigEh
libupm-lsm303agr.so.1:_ZN3upm9LSM303AGR4initE22LSM303AGR_POWER_MODE_T
libupm-lsm303agr.so.1:_ZN3upm9LSM303AGR6updateEv
libupm-lsm303agr.so.1:_ZN3upm9LSM303AGR7readRegEh
libupm-lsm303agr.so.1:_ZN3upm9LSM303AGR8readRegsEhPhi
libupm-lsm303agr.so.1:_ZN3upm9LSM303AGR8writeRegEhh
libupm-lsm303agr.so.1:_ZN3upm9LSM303AGRC1Eiii
libupm-lsm303agr.so.1:_ZN3upm9LSM303AGRC2Eiii
libupm-lsm303agr.so.1:_ZN3upm9LSM303AGRD1Ev
libupm-lsm303agr.so.1:_ZN3upm9LSM303AGRD2Ev
libupm-lsm303d.so.1:_ZN3upm7LSM303D14getTemperatureEv
libupm-lsm303d.so.1:_ZN3upm7LSM303D15getMagnetometerEPfS1_S1_
libupm-lsm303d.so.1:_ZN3upm7LSM303D15getMagnetometerEv
libupm-lsm303d.so.1:_ZN3upm7LSM303D16getAccelerometerEPfS1_S1_
libupm-lsm303d.so.1:_ZN3upm7LSM303D16getAccelerometerEv
libupm-lsm303d.so.1:_ZN3upm7LSM303D18setMagnetometerODRE14LSM303D_MODR_T
libupm-lsm303d.so.1:_ZN3upm7LSM303D19setAccelerometerODRE14LSM303D_AODR_T
libupm-lsm303d.so.1:_ZN3upm7LSM303D24setMagnetometerFullScaleE13LSM303D_MFS_T
libupm-lsm303d.so.1:_ZN3upm7LSM303D25setAccelerometerFullScaleE13LSM303D_AFS_T
libupm-lsm303d.so.1:_ZN3upm7LSM303D4initE15LSM303D_M_RES_T
libupm-lsm303d.so.1:_ZN3upm7LSM303D6updateEv
libupm-lsm303d.so.1:_ZN3upm7LSM303D7readRegEh
libupm-lsm303d.so.1:_ZN3upm7LSM303D8readRegsEhPhi
libupm-lsm303d.so.1:_ZN3upm7LSM303D8writeRegEhh
libupm-lsm303d.so.1:_ZN3upm7LSM303DC1Eii
libupm-lsm303d.so.1:_ZN3upm7LSM303DC2Eii
libupm-lsm303d.so.1:_ZN3upm7LSM303DD1Ev
libupm-lsm303d.so.1:_ZN3upm7LSM303DD2Ev
libupm-lsm303dlh.so.1:_ZN3upm9LSM303DLH10getHeadingEv
libupm-lsm303dlh.so.1:_ZN3upm9LSM303DLH13readThenWriteEh
libupm-lsm303dlh.so.1:_ZN3upm9LSM303DLH14getCoordinatesEv
libupm-lsm303dlh.so.1:_ZN3upm9LSM303DLH14getRawCoorDataEv
libupm-lsm303dlh.so.1:_ZN3upm9LSM303DLH15getAccelerationEv
libupm-lsm303dlh.so.1:_ZN3upm9LSM303DLH15getRawAccelDataEv
libupm-lsm303dlh.so.1:_ZN3upm9LSM303DLH15setRegisterSafeENS0_17LSM303DLH_SLAVE_TEhh
libupm-lsm303dlh.so.1:_ZN3upm9LSM303DLH8getCoorXEv
libupm-lsm303dlh.so.1:_ZN3upm9LSM303DLH8getCoorYEv
libupm-lsm303dlh.so.1:_ZN3upm9LSM303DLH8getCoorZEv
libupm-lsm303dlh.so.1:_ZN3upm9LSM303DLH9getAccelXEv
libupm-lsm303dlh.so.1:_ZN3upm9LSM303DLH9getAccelYEv
libupm-lsm303dlh.so.1:_ZN3upm9LSM303DLH9getAccelZEv
libupm-lsm303dlh.so.1:_ZN3upm9LSM303DLHC1Eiiii
libupm-lsm303dlh.so.1:_ZN3upm9LSM303DLHC2Eiiii
libupm-lsm6ds3h.so.1:_ZN3upm8LSM6DS3H10installISRE25LSM6DS3H_INTERRUPT_PINS_TiN4mraa4EdgeEPFvPvES4_
libupm-lsm6ds3h.so.1:_ZN3upm8LSM6DS3H12getGyroscopeEPfS1_S1_
libupm-lsm6ds3h.so.1:_ZN3upm8LSM6DS3H12getGyroscopeEv
libupm-lsm6ds3h.so.1:_ZN3upm8LSM6DS3H12uninstallISRE25LSM6DS3H_INTERRUPT_PINS_T
libupm-lsm6ds3h.so.1:_ZN3upm8LSM6DS3H14getTemperatureEb
libupm-lsm6ds3h.so.1:_ZN3upm8LSM6DS3H15setGyroscopeODRE16LSM6DS3H_G_ODR_T
libupm-lsm6ds3h.so.1:_ZN3upm8LSM6DS3H16getAccelerometerEPfS1_S1_
libupm-lsm6ds3h.so.1:_ZN3upm8LSM6DS3H16getAccelerometerEv
libupm-lsm6ds3h.so.1:_ZN3upm8LSM6DS3H18setHighPerformanceEb
libupm-lsm6ds3h.so.1:_ZN3upm8LSM6DS3H19setAccelerometerODRE17LSM6DS3H_XL_ODR_T
libupm-lsm6ds3h.so.1:_ZN3upm8LSM6DS3H20setInterruptPushPullEb
libupm-lsm6ds3h.so.1:_ZN3upm8LSM6DS3H21setGyroscopeFullScaleE15LSM6DS3H_G_FS_T
libupm-lsm6ds3h.so.1:_ZN3upm8LSM6DS3H22setInterruptActiveHighEb
libupm-lsm6ds3h.so.1:_ZN3upm8LSM6DS3H25setAccelerometerFullScaleE16LSM6DS3H_XL_FS_T
libupm-lsm6ds3h.so.1:_ZN3upm8LSM6DS3H4initE17LSM6DS3H_XL_ODR_T16LSM6DS3H_XL_FS_T16LSM6DS3H_G_ODR_T15LSM6DS3H_G_FS_T
libupm-lsm6ds3h.so.1:_ZN3upm8LSM6DS3H5resetEv
libupm-lsm6ds3h.so.1:_ZN3upm8LSM6DS3H6updateEv
libupm-lsm6ds3h.so.1:_ZN3upm8LSM6DS3H7readRegEh
libupm-lsm6ds3h.so.1:_ZN3upm8LSM6DS3H8readRegsEhPhi
libupm-lsm6ds3h.so.1:_ZN3upm8LSM6DS3H8writeRegEhh
libupm-lsm6ds3h.so.1:_ZN3upm8LSM6DS3H9getChipIDEv
libupm-lsm6ds3h.so.1:_ZN3upm8LSM6DS3H9getStatusEv
libupm-lsm6ds3h.so.1:_ZN3upm8LSM6DS3HC1Eiii
libupm-lsm6ds3h.so.1:_ZN3upm8LSM6DS3HC2Eiii
libupm-lsm6ds3h.so.1:_ZN3upm8LSM6DS3HD0Ev
libupm-lsm6ds3h.so.1:_ZN3upm8LSM6DS3HD1Ev
libupm-lsm6ds3h.so.1:_ZN3upm8LSM6DS3HD2Ev
libupm-lsm6dsl.so.1:_ZN3upm7LSM6DSL10installISRE24LSM6DSL_INTERRUPT_PINS_TiN4mraa4EdgeEPFvPvES4_
libupm-lsm6dsl.so.1:_ZN3upm7LSM6DSL12getGyroscopeEPfS1_S1_
libupm-lsm6dsl.so.1:_ZN3upm7LSM6DSL12getGyroscopeEv
libupm-lsm6dsl.so.1:_ZN3upm7LSM6DSL12uninstallISRE24LSM6DSL_INTERRUPT_PINS_T
libupm-lsm6dsl.so.1:_ZN3upm7LSM6DSL14getTemperatureEb
libupm-lsm6dsl.so.1:_ZN3upm7LSM6DSL15setGyroscopeODRE15LSM6DSL_G_ODR_T
libupm-lsm6dsl.so.1:_ZN3upm7LSM6DSL16getAccelerometerEPfS1_S1_
libupm-lsm6dsl.so.1:_ZN3upm7LSM6DSL16getAccelerometerEv
libupm-lsm6dsl.so.1:_ZN3upm7LSM6DSL18setHighPerformanceEb
libupm-lsm6dsl.so.1:_ZN3upm7LSM6DSL19setAccelerometerODRE16LSM6DSL_XL_ODR_T
libupm-lsm6dsl.so.1:_ZN3upm7LSM6DSL20setInterruptPushPullEb
libupm-lsm6dsl.so.1:_ZN3upm7LSM6DSL21setGyroscopeFullScaleE14LSM6DSL_G_FS_T
libupm-lsm6dsl.so.1:_ZN3upm7LSM6DSL22setInterruptActiveHighEb
libupm-lsm6dsl.so.1:_ZN3upm7LSM6DSL23setAccelerometerOffsetsEiiib
libupm-lsm6dsl.so.1:_ZN3upm7LSM6DSL25setAccelerometerFullScaleE15LSM6DSL_XL_FS_T
libupm-lsm6dsl.so.1:_ZN3upm7LSM6DSL4initE16LSM6DSL_XL_ODR_T15LSM6DSL_XL_FS_T15LSM6DSL_G_ODR_T14LSM6DSL_G_FS_T
libupm-lsm6dsl.so.1:_ZN3upm7LSM6DSL5resetEv
libupm-lsm6dsl.so.1:_ZN3upm7LSM6DSL6updateEv
libupm-lsm6dsl.so.1:_ZN3upm7LSM6DSL7readRegEh
libupm-lsm6dsl.so.1:_ZN3upm7LSM6DSL8readRegsEhPhi
libupm-lsm6dsl.so.1:_ZN3upm7LSM6DSL8writeRegEhh
libupm-lsm6dsl.so.1:_ZN3upm7LSM6DSL9getChipIDEv
libupm-lsm6dsl.so.1:_ZN3upm7LSM6DSL9getStatusEv
libupm-lsm6dsl.so.1:_ZN3upm7LSM6DSLC1Eiii
libupm-lsm6dsl.so.1:_ZN3upm7LSM6DSLC2Eiii
libupm-lsm6dsl.so.1:_ZN3upm7LSM6DSLD0Ev
libupm-lsm6dsl.so.1:_ZN3upm7LSM6DSLD1Ev
libupm-lsm6dsl.so.1:_ZN3upm7LSM6DSLD2Ev
libupm-lsm9ds0.so.1:_ZN3upm7LSM9DS010installISRENS0_16INTERRUPT_PINS_TEiN4mraa4EdgeEPFvPvES4_
libupm-lsm9ds0.so.1:_ZN3upm7LSM9DS012getGyroscopeEPfS1_S1_
libupm-lsm9ds0.so.1:_ZN3upm7LSM9DS012getGyroscopeEv
libupm-lsm9ds0.so.1:_ZN3upm7LSM9DS012uninstallISRENS0_16INTERRUPT_PINS_TE
libupm-lsm9ds0.so.1:_ZN3upm7LSM9DS014getTemperatureEv
libupm-lsm9ds0.so.1:_ZN3upm7LSM9DS015getMagnetometerEPfS1_S1_
libupm-lsm9ds0.so.1:_ZN3upm7LSM9DS015getMagnetometerEv
libupm-lsm9ds0.so.1:_ZN3upm7LSM9DS015setGyroscopeODRENS0_7G_ODR_TE
libupm-lsm9ds0.so.1:_ZN3upm7LSM9DS015updateGyroscopeEv
libupm-lsm9ds0.so.1:_ZN3upm7LSM9DS016getAccelerometerEPfS1_S1_
libupm-lsm9ds0.so.1:_ZN3upm7LSM9DS016getAccelerometerEv
libupm-lsm9ds0.so.1:_ZN3upm7LSM9DS016getInterruptGen1Ev
libupm-lsm9ds0.so.1:_ZN3upm7LSM9DS016getInterruptGen2Ev
libupm-lsm9ds0.so.1:_ZN3upm7LSM9DS016setInterruptGen1Eh
libupm-lsm9ds0.so.1:_ZN3upm7LSM9DS016setInterruptGen2Eh
libupm-lsm9ds0.so.1:_ZN3upm7LSM9DS017setGyroscopeScaleENS0_6G_FS_TE
libupm-lsm9ds0.so.1:_ZN3upm7LSM9DS017updateTemperatureEv
libupm-lsm9ds0.so.1:_ZN3upm7LSM9DS018getGyroscopeStatusEv
libupm-lsm9ds0.so.1:_ZN3upm7LSM9DS018setMagnetometerLPMEb
libupm-lsm9ds0.so.1:_ZN3upm7LSM9DS018setMagnetometerODRENS0_8XM_ODR_TE
libupm-lsm9ds0.so.1:_ZN3upm7LSM9DS018updateMagnetometerEv
libupm-lsm9ds0.so.1:_ZN3upm7LSM9DS019getInterruptGen1SrcEv
libupm-lsm9ds0.so.1:_ZN3upm7LSM9DS019getInterruptGen2SrcEv
libupm-lsm9ds0.so.1:_ZN3upm7LSM9DS019setAccelerometerODRENS0_9XM_AODR_TE
libupm-lsm9ds0.so.1:_ZN3upm7LSM9DS019setMagnetometerModeENS0_7XM_MD_TE
libupm-lsm9ds0.so.1:_ZN3upm7LSM9DS019updateAccelerometerEv
libupm-lsm9ds0.so.1:_ZN3upm7LSM9DS020setMagnetometerScaleENS0_8XM_MFS_TE
libupm-lsm9ds0.so.1:_ZN3upm7LSM9DS021getMagnetometerStatusEv
libupm-lsm9ds0.so.1:_ZN3upm7LSM9DS021setAccelerometerScaleENS0_8XM_AFS_TE
libupm-lsm9ds0.so.1:_ZN3upm7LSM9DS021setGyroscopePowerDownEb
libupm-lsm9ds0.so.1:_ZN3upm7LSM9DS022getAccelerometerStatusEv
libupm-lsm9ds0.so.1:_ZN3upm7LSM9DS022setGyroscopeEnableAxesEh
libupm-lsm9ds0.so.1:_ZN3upm7LSM9DS023enableTemperatureSensorEb
libupm-lsm9ds0.so.1:_ZN3upm7LSM9DS024getGyroscopeInterruptSrcEv
libupm-lsm9ds0.so.1:_ZN3upm7LSM9DS025setMagnetometerResolutionENS0_8XM_RES_TE
libupm-lsm9ds0.so.1:_ZN3upm7LSM9DS026setAccelerometerEnableAxesEh
libupm-lsm9ds0.so.1:_ZN3upm7LSM9DS027getGyroscopeInterruptConfigEv
libupm-lsm9ds0.so.1:_ZN3upm7LSM9DS027getMagnetometerInterruptSrcEv
libupm-lsm9ds0.so.1:_ZN3upm7LSM9DS027setGyroscopeInterruptConfigEh
libupm-lsm9ds0.so.1:_ZN3upm7LSM9DS031getMagnetometerInterruptControlEv
libupm-lsm9ds0.so.1:_ZN3upm7LSM9DS031setMagnetometerInterruptControlEh
libupm-lsm9ds0.so.1:_ZN3upm7LSM9DS04initEv
libupm-lsm9ds0.so.1:_ZN3upm7LSM9DS06getPinENS0_16INTERRUPT_PINS_TE
libupm-lsm9ds0.so.1:_ZN3upm7LSM9DS06updateEv
libupm-lsm9ds0.so.1:_ZN3upm7LSM9DS07readRegENS0_8DEVICE_TEh
libupm-lsm9ds0.so.1:_ZN3upm7LSM9DS08readRegsENS0_8DEVICE_TEhPhi
libupm-lsm9ds0.so.1:_ZN3upm7LSM9DS08writeRegENS0_8DEVICE_TEhh
libupm-lsm9ds0.so.1:_ZN3upm7LSM9DS0C1Eibhh
libupm-lsm9ds0.so.1:_ZN3upm7LSM9DS0C2Eibhh
libupm-lsm9ds0.so.1:_ZN3upm7LSM9DS0D1Ev
libupm-lsm9ds0.so.1:_ZN3upm7LSM9DS0D2Ev
libupm-m24lr64e.so.1:_ZN3upm8M24LR64E10writeBytesEjPhi
libupm-m24lr64e.so.1:_ZN3upm8M24LR64E11clearMemoryEv
libupm-m24lr64e.so.1:_ZN3upm8M24LR64E11writePasswdEj
libupm-m24lr64e.so.1:_ZN3upm8M24LR64E12submitPasswdEj
libupm-m24lr64e.so.1:_ZN3upm8M24LR64E13getMemorySizeEv
libupm-m24lr64e.so.1:_ZN3upm8M24LR64E16EEPROM_Read_ByteEj
libupm-m24lr64e.so.1:_ZN3upm8M24LR64E17EEPROM_Read_BytesEjPhi
libupm-m24lr64e.so.1:_ZN3upm8M24LR64E17EEPROM_Write_ByteEjh
libupm-m24lr64e.so.1:_ZN3upm8M24LR64E18EEPROM_Write_BytesEjPhi
libupm-m24lr64e.so.1:_ZN3upm8M24LR64E18clearSectorProtectEv
libupm-m24lr64e.so.1:_ZN3upm8M24LR64E18sectorWriteLockBitEjb
libupm-m24lr64e.so.1:_ZN3upm8M24LR64E19sectorProtectConfigEjbNS0_17SectorAccessRightENS0_18SectorSelectPassWdE
libupm-m24lr64e.so.1:_ZN3upm8M24LR64E6getAFIEv
libupm-m24lr64e.so.1:_ZN3upm8M24LR64E6getUIDEv
libupm-m24lr64e.so.1:_ZN3upm8M24LR64E8getDSFIDEv
libupm-m24lr64e.so.1:_ZN3upm8M24LR64E8readByteEj
libupm-m24lr64e.so.1:_ZN3upm8M24LR64E9readBytesEjPhi
libupm-m24lr64e.so.1:_ZN3upm8M24LR64E9writeByteEjh
libupm-m24lr64e.so.1:_ZN3upm8M24LR64EC1EiNS0_10AccessModeE
libupm-m24lr64e.so.1:_ZN3upm8M24LR64EC2EiNS0_10AccessModeE
libupm-m24lr64e.so.1:_ZN3upm8M24LR64ED1Ev
libupm-m24lr64e.so.1:_ZN3upm8M24LR64ED2Ev
libupm-mag3110.so.1:_ZN3upm7MAG311010sampleDataEv
libupm-mag3110.so.1:_ZN3upm7MAG311010setStandbyEv
libupm-mag3110.so.1:_ZN3upm7MAG311013setUserOffsetEsss
libupm-mag3110.so.1:_ZN3upm7MAG311017getDieTemperatureEv
libupm-mag3110.so.1:_ZN3upm7MAG31104getXEi
libupm-mag3110.so.1:_ZN3upm7MAG31104getYEi
libupm-mag3110.so.1:_ZN3upm7MAG31104getZEi
libupm-mag3110.so.1:_ZN3upm7MAG31107checkIDEv
libupm-mag3110.so.1:_ZN3upm7MAG31107getDataEPNS_14mag3110_data_tEi
libupm-mag3110.so.1:_ZN3upm7MAG31107isReadyEv
libupm-mag3110.so.1:_ZN3upm7MAG31109getStatusEv
libupm-mag3110.so.1:_ZN3upm7MAG31109setActiveEv
libupm-mag3110.so.1:_ZN3upm7MAG3110C1Eihi
libupm-mag3110.so.1:_ZN3upm7MAG3110C2Eihi
libupm-max30100.so.1:_Z14max30100_throwNSt7__cxx1112basic_stringIcSt11char_traitsIcESaIcEEES4_12upm_result_t
libupm-max30100.so.1:_Z18_read_sample_proxy14max30100_valuePv
libupm-max30100.so.1:_ZN3upm8MAX3010010current_irEv
libupm-max30100.so.1:_ZN3upm8MAX3010011pulse_widthE16_MAX30100_LED_PW
libupm-max30100.so.1:_ZN3upm8MAX3010011pulse_widthEv
libupm-max30100.so.1:_ZN3upm8MAX3010011sample_rateE12_MAX30100_SR
libupm-max30100.so.1:_ZN3upm8MAX3010011sample_rateEv
libupm-max30100.so.1:_ZN3upm8MAX3010011sample_stopEv
libupm-max30100.so.1:_ZN3upm8MAX3010011temperatureEv
libupm-max30100.so.1:_ZN3upm8MAX3010015high_res_enableEb
libupm-max30100.so.1:_ZN3upm8MAX3010015high_res_enableEv
libupm-max30100.so.1:_ZN3upm8MAX3010017sample_continuousEibPNS_8CallbackE
libupm-max30100.so.1:_ZN3upm8MAX301004modeE14_MAX30100_MODE
libupm-max30100.so.1:_ZN3upm8MAX301004modeEv
libupm-max30100.so.1:_ZN3upm8MAX301004readE12MAX30100_REG
libupm-max30100.so.1:_ZN3upm8MAX301005resetEv
libupm-max30100.so.1:_ZN3upm8MAX301005sleepEb
libupm-max30100.so.1:_ZN3upm8MAX301005writeE12MAX30100_REGh
libupm-max30100.so.1:_ZN3upm8MAX301006sampleEv
libupm-max30100.so.1:_ZN3upm8MAX301007currentE21_MAX30100_LED_CURRENTS1_
libupm-max30100.so.1:_ZN3upm8MAX301007versionEv
libupm-max30100.so.1:_ZN3upm8MAX301009current_rEv
libupm-max30100.so.1:_ZN3upm8MAX30100C1Es
libupm-max30100.so.1:_ZN3upm8MAX30100C2Es
libupm-max31723.so.1:_ZN3upm8MAX3172312readRegisterEh
libupm-max31723.so.1:_ZN3upm8MAX3172313writeRegisterEhh
libupm-max31723.so.1:_ZN3upm8MAX3172314getTemperatureEv
libupm-max31723.so.1:_ZN3upm8MAX317234CSOnEv
libupm-max31723.so.1:_ZN3upm8MAX317235CSOffEv
libupm-max31723.so.1:_ZN3upm8MAX31723C1Eii
libupm-max31723.so.1:_ZN3upm8MAX31723C2Eii
libupm-max31855.so.1:_ZN3upm8MAX318557getTempEv
libupm-max31855.so.1:_ZN3upm8MAX31855C1Eii
libupm-max31855.so.1:_ZN3upm8MAX31855C2Eii
libupm-max31855.so.1:_ZN3upm8MAX31855D1Ev
libupm-max31855.so.1:_ZN3upm8MAX31855D2Ev
libupm-max44000.so.1:_ZN3upm8MAX4400010getAmbientEv
libupm-max44000.so.1:_ZN3upm8MAX4400011i2cWriteRegEhh
libupm-max44000.so.1:_ZN3upm8MAX4400012getProximityEv
libupm-max44000.so.1:_ZN3upm8MAX4400012i2cReadReg_8Ei
libupm-max44000.so.1:_ZN3upm8MAX4400013i2cReadReg_16Ei
libupm-max44000.so.1:_ZN3upm8MAX44000C1Eii
libupm-max44000.so.1:_ZN3upm8MAX44000C2Eii
libupm-max44009.so.1:_ZN3upm8MAX4400913getVisibleLuxEv
libupm-max44009.so.1:_ZN3upm8MAX4400913getVisibleRawEv
libupm-max44009.so.1:_ZN3upm8MAX440095resetEv
libupm-max44009.so.1:_ZN3upm8MAX44009C1Eii
libupm-max44009.so.1:_ZN3upm8MAX44009C2Eii
libupm-max44009.so.1:_ZN3upm8MAX44009D0Ev
libupm-max44009.so.1:_ZN3upm8MAX44009D1Ev
libupm-max44009.so.1:_ZN3upm8MAX44009D2Ev
libupm-max44009.so.1:_ZTv0_n32_N3upm8MAX44009D0Ev
libupm-max44009.so.1:_ZTv0_n32_N3upm8MAX44009D1Ev
libupm-max5487.so.1:_ZN3upm7MAX54874CSOnEv
libupm-max5487.so.1:_ZN3upm7MAX54875CSOffEv
libupm-max5487.so.1:_ZN3upm7MAX54879setWiperAEh
libupm-max5487.so.1:_ZN3upm7MAX54879setWiperBEh
libupm-max5487.so.1:_ZN3upm7MAX5487C1Ei
libupm-max5487.so.1:_ZN3upm7MAX5487C2Ei
libupm-maxds3231m.so.1:_ZN3upm10MAXDS3231M12i2cReadReg_NEijPh
libupm-maxds3231m.so.1:_ZN3upm10MAXDS3231M13i2cWriteReg_NEhjPh
libupm-maxds3231m.so.1:_ZN3upm10MAXDS3231M14getTemperatureEv
libupm-maxds3231m.so.1:_ZN3upm10MAXDS3231M7getDateERNS_8Time3231E
libupm-maxds3231m.so.1:_ZN3upm10MAXDS3231M7setDateERNS_8Time3231E
libupm-maxds3231m.so.1:_ZN3upm10MAXDS3231M8BCDtoDECEh
libupm-maxds3231m.so.1:_ZN3upm10MAXDS3231M8DECtoBSDEh
libupm-maxds3231m.so.1:_ZN3upm10MAXDS3231MC1Eii
libupm-maxds3231m.so.1:_ZN3upm10MAXDS3231MC2Eii
libupm-maxsonarez.so.1:_ZN3upm10MAXSONAREZ6inchesEv
libupm-maxsonarez.so.1:_ZN3upm10MAXSONAREZC1Eif
libupm-maxsonarez.so.1:_ZN3upm10MAXSONAREZC2Eif
libupm-maxsonarez.so.1:_ZN3upm10MAXSONAREZD1Ev
libupm-maxsonarez.so.1:_ZN3upm10MAXSONAREZD2Ev
libupm-mb704x.so.1:_ZN3upm6MB704X8getRangeEv
libupm-mb704x.so.1:_ZN3upm6MB704XC1Ejj
libupm-mb704x.so.1:_ZN3upm6MB704XC2Ejj
libupm-mb704x.so.1:_ZN3upm6MB704XD1Ev
libupm-mb704x.so.1:_ZN3upm6MB704XD2Ev
libupm-mcp2515.so.1:_ZN3upm7MCP251510installISREiPFvPvES1_
libupm-mcp2515.so.1:_ZN3upm7MCP251512getIntrFlagsEv
libupm-mcp2515.so.1:_ZN3upm7MCP251512loadTXBufferE19MCP2515_TX_BUFFER_TibbNSt7__cxx1112basic_stringIcSt11char_traitsIcESaIcEEE
libupm-mcp2515.so.1:_ZN3upm7MCP251512rxStatusMsgsEv
libupm-mcp2515.so.1:_ZN3upm7MCP251512setIntrFlagsEh
libupm-mcp2515.so.1:_ZN3upm7MCP251512uninstallISREv
libupm-mcp2515.so.1:_ZN3upm7MCP251513getErrorFlagsEv
libupm-mcp2515.so.1:_ZN3upm7MCP251514clearIntrFlagsEh
libupm-mcp2515.so.1:_ZN3upm7MCP251514isTXBufferFreeE19MCP2515_TX_BUFFER_T
libupm-mcp2515.so.1:_ZN3upm7MCP251514setIntrEnablesEh
libupm-mcp2515.so.1:_ZN3upm7MCP251514transmitBufferE19MCP2515_TX_BUFFER_Tb
libupm-mcp2515.so.1:_ZN3upm7MCP251515clearErrorFlagsEh
libupm-mcp2515.so.1:_ZN3upm7MCP251515rxStatusMsgTypeEv
libupm-mcp2515.so.1:_ZN3upm7MCP251515setRXBufferModeE19MCP2515_RX_BUFFER_T16MCP2515_RXMODE_T
libupm-mcp2515.so.1:_ZN3upm7MCP251516findFreeTXBufferEv
libupm-mcp2515.so.1:_ZN3upm7MCP251519rxStatusFiltermatchEv
libupm-mcp2515.so.1:_ZN3upm7MCP251519setTXBufferPriorityE19MCP2515_TX_BUFFER_T13MCP2515_TXP_T
libupm-mcp2515.so.1:_ZN3upm7MCP25155resetEv
libupm-mcp2515.so.1:_ZN3upm7MCP25157abortTXE19MCP2515_TX_BUFFER_T
libupm-mcp2515.so.1:_ZN3upm7MCP25157busReadEhNSt7__cxx1112basic_stringIcSt11char_traitsIcESaIcEEEi
libupm-mcp2515.so.1:_ZN3upm7MCP25157setMaskE17MCP2515_RX_MASK_Tbi
libupm-mcp2515.so.1:_ZN3upm7MCP25158busWriteEhNSt7__cxx1112basic_stringIcSt11char_traitsIcESaIcEEE
libupm-mcp2515.so.1:_ZN3upm7MCP25158getRXMsgE19MCP2515_RX_BUFFER_T
libupm-mcp2515.so.1:_ZN3upm7MCP25158printMsgEv
libupm-mcp2515.so.1:_ZN3upm7MCP25158setSpeedE15MCP2515_SPEED_T
libupm-mcp2515.so.1:_ZN3upm7MCP25158writeRegEhh
libupm-mcp2515.so.1:_ZN3upm7MCP25159bitModifyEhhh
libupm-mcp2515.so.1:_ZN3upm7MCP25159setFilterE19MCP2515_RX_FILTER_Tbi
libupm-mcp2515.so.1:_ZN3upm7MCP25159setOpmodeE16MCP2515_OPMODE_T
libupm-mcp2515.so.1:_ZN3upm7MCP25159writeRegsEhNSt7__cxx1112basic_stringIcSt11char_traitsIcESaIcEEE
libupm-mcp2515.so.1:_ZN3upm7MCP2515C1Eii
libupm-mcp2515.so.1:_ZN3upm7MCP2515C2Eii
libupm-mcp2515.so.1:_ZN3upm7MCP2515D1Ev
libupm-mcp2515.so.1:_ZN3upm7MCP2515D2Ev
libupm-mcp9808.so.1:_ZN3upm7MCP980812getDevicedIdEv
libupm-mcp9808.so.1:_ZN3upm7MCP980812getTempValueEt
libupm-mcp9808.so.1:_ZN3upm7MCP980812setAlertModeEt
libupm-mcp9808.so.1:_ZN3upm7MCP980813getHysteresisEv
libupm-mcp9808.so.1:_ZN3upm7MCP980813getMonitorRegENS0_11MCP9808_REGE
libupm-mcp9808.so.1:_ZN3upm7MCP980813getResolutionEv
libupm-mcp9808.so.1:_ZN3upm7MCP980813setHysteresisENS0_14MCP9808_CONFIGE
libupm-mcp9808.so.1:_ZN3upm7MCP980813setMonitorRegENS0_11MCP9808_REGEf
libupm-mcp9808.so.1:_ZN3upm7MCP980813setResolutionENS0_18MCP9808_RESOLUTIONE
libupm-mcp9808.so.1:_ZN3upm7MCP980814clearAlertModeEv
libupm-mcp9808.so.1:_ZN3upm7MCP980814clearInterruptEv
libupm-mcp9808.so.1:_ZN3upm7MCP980815getManufacturerEv
libupm-mcp9808.so.1:_ZN3upm7MCP980820updateConfigRegisterEtb
libupm-mcp9808.so.1:_ZN3upm7MCP98087getTempEv
libupm-mcp9808.so.1:_ZN3upm7MCP98088shutDownEb
libupm-mcp9808.so.1:_ZN3upm7MCP98088swapWordEt
libupm-mcp9808.so.1:_ZN3upm7MCP9808C1Eih
libupm-mcp9808.so.1:_ZN3upm7MCP9808C2Eih
libupm-mcp9808.so.1:_ZN3upm7MCP9808D1Ev
libupm-mcp9808.so.1:_ZN3upm7MCP9808D2Ev
libupm-md.so.1:_ZN3upm2MD11writePacketE8MD_REG_Thh
libupm-md.so.1:_ZN3upm2MD13configStepperEj14MD_STEP_MODE_T
libupm-md.so.1:_ZN3upm2MD13enableStepperE19MD_STEP_DIRECTION_Th
libupm-md.so.1:_ZN3upm2MD14disableStepperEv
libupm-md.so.1:_ZN3upm2MD14setMotorSpeedsEhh
libupm-md.so.1:_ZN3upm2MD15setStepperStepsEj
libupm-md.so.1:_ZN3upm2MD18setMotorDirectionsE17MD_DC_DIRECTION_TS1_
libupm-md.so.1:_ZN3upm2MD23setPWMFrequencyPrescaleEh
libupm-md.so.1:_ZN3upm2MDC1Eih
libupm-md.so.1:_ZN3upm2MDC2Eih
libupm-md.so.1:_ZN3upm2MDD1Ev
libupm-md.so.1:_ZN3upm2MDD2Ev
libupm-mg811.so.1:_ZN3upm5MG81114setCalibrationEff
libupm-mg811.so.1:_ZN3upm5MG81116thresholdReachedEv
libupm-mg811.so.1:_ZN3upm5MG81119getReferenceVoltageEv
libupm-mg811.so.1:_ZN3upm5MG8113ppmEv
libupm-mg811.so.1:_ZN3upm5MG8115voltsEv
libupm-mg811.so.1:_ZN3upm5MG811C1Eiif
libupm-mg811.so.1:_ZN3upm5MG811C2Eiif
libupm-mg811.so.1:_ZN3upm5MG811D1Ev
libupm-mg811.so.1:_ZN3upm5MG811D2Ev
libupm-mhz16.so.1:_ZN3upm5MHZ1612verifyPacketEPhi
libupm-mhz16.so.1:_ZN3upm5MHZ1613dataAvailableEj
libupm-mhz16.so.1:_ZN3upm5MHZ1614getTemperatureEv
libupm-mhz16.so.1:_ZN3upm5MHZ1618calibrateZeroPointEv
libupm-mhz16.so.1:_ZN3upm5MHZ166getGasEv
libupm-mhz16.so.1:_ZN3upm5MHZ167getDataEv
libupm-mhz16.so.1:_ZN3upm5MHZ168readDataEPci
libupm-mhz16.so.1:_ZN3upm5MHZ168setupTtyEj
libupm-mhz16.so.1:_ZN3upm5MHZ169writeDataEPci
libupm-mhz16.so.1:_ZN3upm5MHZ16C1ERKNSt7__cxx1112basic_stringIcSt11char_traitsIcESaIcEEE
libupm-mhz16.so.1:_ZN3upm5MHZ16C1Ei
libupm-mhz16.so.1:_ZN3upm5MHZ16C2ERKNSt7__cxx1112basic_stringIcSt11char_traitsIcESaIcEEE
libupm-mhz16.so.1:_ZN3upm5MHZ16C2Ei
libupm-mhz16.so.1:_ZN3upm5MHZ16D0Ev
libupm-mhz16.so.1:_ZN3upm5MHZ16D1Ev
libupm-mhz16.so.1:_ZN3upm5MHZ16D2Ev
libupm-mic.so.1:_ZN3upm10Microphone10printGraphEP16thresholdContext
libupm-mic.so.1:_ZN3upm10Microphone13findThresholdEP16thresholdContextjPti
libupm-mic.so.1:_ZN3upm10Microphone16getSampledWindowEjiPt
libupm-mic.so.1:_ZN3upm10MicrophoneC1Ei
libupm-mic.so.1:_ZN3upm10MicrophoneC2Ei
libupm-mic.so.1:_ZN3upm10MicrophoneD1Ev
libupm-mic.so.1:_ZN3upm10MicrophoneD2Ev
libupm-micsv89.so.1:_ZN3upm7MICSV894tvocEv
libupm-micsv89.so.1:_ZN3upm7MICSV896co2equEv
libupm-micsv89.so.1:_ZN3upm7MICSV896updateEv
libupm-micsv89.so.1:_ZN3upm7MICSV898resistorEv
libupm-micsv89.so.1:_ZN3upm7MICSV898vocshortEv
libupm-micsv89.so.1:_ZN3upm7MICSV89C1Eih
libupm-micsv89.so.1:_ZN3upm7MICSV89C2Eih
libupm-micsv89.so.1:_ZN3upm7MICSV89D1Ev
libupm-micsv89.so.1:_ZN3upm7MICSV89D2Ev
libupm-mlx90614.so.1:_ZN3upm8MLX9061415readObjectTempCEi
libupm-mlx90614.so.1:_ZN3upm8MLX9061415readObjectTempFEi
libupm-mlx90614.so.1:_ZN3upm8MLX9061415readTemperatureEh
libupm-mlx90614.so.1:_ZN3upm8MLX9061416readAmbientTempCEv
libupm-mlx90614.so.1:_ZN3upm8MLX9061416readAmbientTempFEv
libupm-mlx90614.so.1:_ZN3upm8MLX90614C1Eii
libupm-mlx90614.so.1:_ZN3upm8MLX90614C2Eii
libupm-mma7361.so.1:_ZN3upm7MMA736112isInFreefallEv
libupm-mma7361.so.1:_ZN3upm7MMA736113getNormalizedEPfS1_S1_
libupm-mma7361.so.1:_ZN3upm7MMA736113getNormalizedEv
libupm-mma7361.so.1:_ZN3upm7MMA736114enableSelftestEb
libupm-mma7361.so.1:_ZN3upm7MMA736115getAccelerationEPfS1_S1_
libupm-mma7361.so.1:_ZN3upm7MMA736115getAccelerationEv
libupm-mma7361.so.1:_ZN3upm7MMA73616updateEv
libupm-mma7361.so.1:_ZN3upm7MMA73618getVoltsEPfS1_S1_
libupm-mma7361.so.1:_ZN3upm7MMA73618getVoltsEv
libupm-mma7361.so.1:_ZN3upm7MMA73618setRangeEb
libupm-mma7361.so.1:_ZN3upm7MMA73618setScaleEfff
libupm-mma7361.so.1:_ZN3upm7MMA73618setSleepEb
libupm-mma7361.so.1:_ZN3upm7MMA73619setOffsetEfff
libupm-mma7361.so.1:_ZN3upm7MMA7361C1Eiiiiiiif
libupm-mma7361.so.1:_ZN3upm7MMA7361C2Eiiiiiiif
libupm-mma7361.so.1:_ZN3upm7MMA7361D1Ev
libupm-mma7361.so.1:_ZN3upm7MMA7361D2Ev
libupm-mma7455.so.1:_ZN3upm7MMA745510i2cReadRegEhPhi
libupm-mma7455.so.1:_ZN3upm7MMA745511i2cWriteRegEhPhi
libupm-mma7455.so.1:_ZN3upm7MMA74558readDataEPsS1_S1_
libupm-mma7455.so.1:_ZN3upm7MMA74558readDataEv
libupm-mma7455.so.1:_ZN3upm7MMA74559calibrateEv
libupm-mma7455.so.1:_ZN3upm7MMA7455C1Eii
libupm-mma7455.so.1:_ZN3upm7MMA7455C2Eii
libupm-mma7660.so.1:_ZN3upm7MMA766010installISREiPFvPvES1_
libupm-mma7660.so.1:_ZN3upm7MMA766012getRawValuesEPiS1_S1_
libupm-mma7660.so.1:_ZN3upm7MMA766012uninstallISREv
libupm-mma7660.so.1:_ZN3upm7MMA766013setModeActiveEv
libupm-mma7660.so.1:_ZN3upm7MMA766013setSampleRateE19MMA7660_AUTOSLEEP_T
libupm-mma7660.so.1:_ZN3upm7MMA766013tiltBackFrontEv
libupm-mma7660.so.1:_ZN3upm7MMA766014setModeStandbyEv
libupm-mma7660.so.1:_ZN3upm7MMA766015getAccelerationEPfS1_S1_
libupm-mma7660.so.1:_ZN3upm7MMA766015getVerifiedAxisE13MMA7660_REG_T
libupm-mma7660.so.1:_ZN3upm7MMA766015getVerifiedTiltEv
libupm-mma7660.so.1:_ZN3upm7MMA766016setInterruptBitsEh
libupm-mma7660.so.1:_ZN3upm7MMA766021tiltLandscapePortraitEv
libupm-mma7660.so.1:_ZN3upm7MMA76607tiltTapEv
libupm-mma7660.so.1:_ZN3upm7MMA76608readByteEh
libupm-mma7660.so.1:_ZN3upm7MMA76609tiltShakeEv
libupm-mma7660.so.1:_ZN3upm7MMA76609writeByteEhh
libupm-mma7660.so.1:_ZN3upm7MMA7660C1Eih
libupm-mma7660.so.1:_ZN3upm7MMA7660C2Eih
libupm-mma7660.so.1:_ZN3upm7MMA7660D0Ev
libupm-mma7660.so.1:_ZN3upm7MMA7660D1Ev
libupm-mma7660.so.1:_ZN3upm7MMA7660D2Ev
libupm-mma8x5x.so.1:_ZN3upm7MMA8X5X10sampleDataEv
libupm-mma8x5x.so.1:_ZN3upm7MMA8X5X10setStandbyEv
libupm-mma8x5x.so.1:_ZN3upm7MMA8X5X13setDeviceNameEh
libupm-mma8x5x.so.1:_ZN3upm7MMA8X5X13setUserOffsetEaaa
libupm-mma8x5x.so.1:_ZN3upm7MMA8X5X15setDeviceParamsEPNS_16mma8x5x_params_tE
libupm-mma8x5x.so.1:_ZN3upm7MMA8X5X4getXEi
libupm-mma8x5x.so.1:_ZN3upm7MMA8X5X4getYEi
libupm-mma8x5x.so.1:_ZN3upm7MMA8X5X4getZEi
libupm-mma8x5x.so.1:_ZN3upm7MMA8X5X7getDataEPNS_14mma8x5x_data_tEi
libupm-mma8x5x.so.1:_ZN3upm7MMA8X5X7isReadyEv
libupm-mma8x5x.so.1:_ZN3upm7MMA8X5X9setActiveEv
libupm-mma8x5x.so.1:_ZN3upm7MMA8X5XC1EiPNS_16mma8x5x_params_tEi
libupm-mma8x5x.so.1:_ZN3upm7MMA8X5XC2EiPNS_16mma8x5x_params_tEi
libupm-mmc35240.so.1:_ZN3upm8MMC3524010installISREPFvPcPvES2_
libupm-mmc35240.so.1:_ZN3upm8MMC3524011calcEvectorERN7android3matIdLm3ELm3EEEdRNS2_IdLm3ELm1EEE
libupm-mmc35240.so.1:_ZN3upm8MMC3524011resetSampleEPNS0_13compass_cal_tE
libupm-mmc35240.so.1:_ZN3upm8MMC3524012compassReadyEPNS0_13compass_cal_tE
libupm-mmc35240.so.1:_ZN3upm8MMC3524012ellipsoidFitERA32_A3_dRN7android3matIdLm3ELm1EEERNS5_IdLm3ELm3EEEPd
libupm-mmc35240.so.1:_ZN3upm8MMC3524012enableBufferEi
libupm-mmc35240.so.1:_ZN3upm8MMC3524012extract3AxisEPcPfS2_S2_
libupm-mmc35240.so.1:_ZN3upm8MMC3524013calcSquareErrEPNS0_13compass_cal_tE
libupm-mmc35240.so.1:_ZN3upm8MMC3524013disableBufferEv
libupm-mmc35240.so.1:_ZN3upm8MMC3524013initCalibrateEv
libupm-mmc35240.so.1:_ZN3upm8MMC3524014compassCollectEPfS1_S1_PNS0_13compass_cal_tE
libupm-mmc35240.so.1:_ZN3upm8MMC3524015denoise_averageEPfS1_S1_
libupm-mmc35240.so.1:_ZN3upm8MMC3524015getChannelValueEPhP16mraa_iio_channel
libupm-mmc35240.so.1:_ZN3upm8MMC3524016calibrateCompassEPfS1_S1_PNS0_13compass_cal_tE
libupm-mmc35240.so.1:_ZN3upm8MMC3524017compassComputeCalEPfS1_S1_PNS0_13compass_cal_tE
libupm-mmc35240.so.1:_ZN3upm8MMC3524017getCalibratedDataEPiPA1_dPA3_dPd
libupm-mmc35240.so.1:_ZN3upm8MMC3524018computeEigenvaluesERN7android3matIdLm3ELm3EEEPdS5_S5_
libupm-mmc35240.so.1:_ZN3upm8MMC3524018enable3AxisChannelEv
libupm-mmc35240.so.1:_ZN3upm8MMC3524018getCalibratedLevelEv
libupm-mmc35240.so.1:_ZN3upm8MMC3524018loadCalibratedDataEiPA1_dPA3_dd
libupm-mmc35240.so.1:_ZN3upm8MMC3524020setSamplingFrequencyEf
libupm-mmc35240.so.1:_ZN3upm8MMC352405scaleEPfS1_S1_
libupm-mmc35240.so.1:_ZN3upm8MMC352408setScaleEf
libupm-mmc35240.so.1:_ZN3upm8MMC35240C1Ei
libupm-mmc35240.so.1:_ZN3upm8MMC35240C2Ei
libupm-mmc35240.so.1:_ZN3upm8MMC35240D1Ev
libupm-mmc35240.so.1:_ZN3upm8MMC35240D2Ev
libupm-moisture.so.1:_ZN3upm8Moisture5valueEv
libupm-moisture.so.1:_ZN3upm8MoistureC1Ei
libupm-moisture.so.1:_ZN3upm8MoistureC2Ei
libupm-moisture.so.1:_ZN3upm8MoistureD1Ev
libupm-moisture.so.1:_ZN3upm8MoistureD2Ev
libupm-mpl3115a2.so.1:_ZN3upm9MPL3115A210dumpSensorEv
libupm-mpl3115a2.so.1:_ZN3upm9MPL3115A210getTempRegEi
libupm-mpl3115a2.so.1:_ZN3upm9MPL3115A210sampleDataEv
libupm-mpl3115a2.so.1:_ZN3upm9MPL3115A210testSensorEv
libupm-mpl3115a2.so.1:_ZN3upm9MPL3115A211getAltitudeEf
libupm-mpl3115a2.so.1:_ZN3upm9MPL3115A211getPressureEi
libupm-mpl3115a2.so.1:_ZN3upm9MPL3115A211i2cWriteRegEhh
libupm-mpl3115a2.so.1:_ZN3upm9MPL3115A211resetSensorEv
libupm-mpl3115a2.so.1:_ZN3upm9MPL3115A212i2cReadReg_8Ei
libupm-mpl3115a2.so.1:_ZN3upm9MPL3115A213i2cReadReg_16Ei
libupm-mpl3115a2.so.1:_ZN3upm9MPL3115A214getPressureMaxEv
libupm-mpl3115a2.so.1:_ZN3upm9MPL3115A214getPressureMinEv
libupm-mpl3115a2.so.1:_ZN3upm9MPL3115A214getPressureRegEi
libupm-mpl3115a2.so.1:_ZN3upm9MPL3115A214getTemperatureEi
libupm-mpl3115a2.so.1:_ZN3upm9MPL3115A215convertPaToinHgEf
libupm-mpl3115a2.so.1:_ZN3upm9MPL3115A215convertTempCtoFEf
libupm-mpl3115a2.so.1:_ZN3upm9MPL3115A215getOversamplingEv
libupm-mpl3115a2.so.1:_ZN3upm9MPL3115A215setOversamplingEh
libupm-mpl3115a2.so.1:_ZN3upm9MPL3115A217getTemperatureMaxEv
libupm-mpl3115a2.so.1:_ZN3upm9MPL3115A217getTemperatureMinEv
libupm-mpl3115a2.so.1:_ZN3upm9MPL3115A219getSealevelPressureEf
libupm-mpl3115a2.so.1:_ZN3upm9MPL3115A2C1Eiih
libupm-mpl3115a2.so.1:_ZN3upm9MPL3115A2C2Eiih
libupm-mpr121.so.1:_ZN3upm6MPR12110writeBytesEhPhi
libupm-mpr121.so.1:_ZN3upm6MPR12111readButtonsEv
libupm-mpr121.so.1:_ZN3upm6MPR12112configAN3944Ev
libupm-mpr121.so.1:_ZN3upm6MPR1219readBytesEhPhi
libupm-mpr121.so.1:_ZN3upm6MPR121C1Eih
libupm-mpr121.so.1:_ZN3upm6MPR121C2Eih
libupm-mpu9150.so.1:_ZN3upm6AK897511adjustValueEff
libupm-mpu9150.so.1:_ZN3upm6AK897515getMagnetometerEPfS1_S1_
libupm-mpu9150.so.1:_ZN3upm6AK897518waitforDeviceReadyEv
libupm-mpu9150.so.1:_ZN3upm6AK89754initEv
libupm-mpu9150.so.1:_ZN3upm6AK89756updateEb
libupm-mpu9150.so.1:_ZN3upm6AK89757isReadyEv
libupm-mpu9150.so.1:_ZN3upm6AK89757setModeENS0_12CNTL_MODES_TE
libupm-mpu9150.so.1:_ZN3upm6AK89758selfTestEv
libupm-mpu9150.so.1:_ZN3upm6AK8975C1Eih
libupm-mpu9150.so.1:_ZN3upm6AK8975C2Eih
libupm-mpu9150.so.1:_ZN3upm6AK8975D1Ev
libupm-mpu9150.so.1:_ZN3upm6AK8975D2Ev
libupm-mpu9150.so.1:_ZN3upm7MPU60X010installISREiN4mraa4EdgeEPFvPvES3_
libupm-mpu9150.so.1:_ZN3upm7MPU60X011get_gpioIRQEv
libupm-mpu9150.so.1:_ZN3upm7MPU60X012getGyroscopeEPfS1_S1_
libupm-mpu9150.so.1:_ZN3upm7MPU60X012uninstallISREv
libupm-mpu9150.so.1:_ZN3upm7MPU60X014getTemperatureEv
libupm-mpu9150.so.1:_ZN3upm7MPU60X014setClockSourceENS0_8CLKSEL_TE
libupm-mpu9150.so.1:_ZN3upm7MPU60X015enableI2CBypassEb
libupm-mpu9150.so.1:_ZN3upm7MPU60X015setExternalSyncENS0_14EXT_SYNC_SET_TE
libupm-mpu9150.so.1:_ZN3upm7MPU60X016getAccelerometerEPfS1_S1_
libupm-mpu9150.so.1:_ZN3upm7MPU60X017setGyroscopeScaleENS0_8FS_SEL_TE
libupm-mpu9150.so.1:_ZN3upm7MPU60X018getInterruptStatusEv
libupm-mpu9150.so.1:_ZN3upm7MPU60X019getInterruptEnablesEv
libupm-mpu9150.so.1:_ZN3upm7MPU60X019setInterruptEnablesEh
libupm-mpu9150.so.1:_ZN3upm7MPU60X020getSampleRateDividerEv
libupm-mpu9150.so.1:_ZN3upm7MPU60X020setSampleRateDividerEh
libupm-mpu9150.so.1:_ZN3upm7MPU60X021getInterruptPinConfigEv
libupm-mpu9150.so.1:_ZN3upm7MPU60X021setAccelerometerScaleENS0_9AFS_SEL_TE
libupm-mpu9150.so.1:_ZN3upm7MPU60X021setInterruptPinConfigEh
libupm-mpu9150.so.1:_ZN3upm7MPU60X023enableTemperatureSensorEb
libupm-mpu9150.so.1:_ZN3upm7MPU60X023setDigitalLowPassFilterENS0_10DLPF_CFG_TE
libupm-mpu9150.so.1:_ZN3upm7MPU60X027setMotionDetectionThresholdEh
libupm-mpu9150.so.1:_ZN3upm7MPU60X04initEv
libupm-mpu9150.so.1:_ZN3upm7MPU60X06updateEv
libupm-mpu9150.so.1:_ZN3upm7MPU60X07readRegEh
libupm-mpu9150.so.1:_ZN3upm7MPU60X08readRegsEhPhi
libupm-mpu9150.so.1:_ZN3upm7MPU60X08setSleepEb
libupm-mpu9150.so.1:_ZN3upm7MPU60X08writeRegEhh
libupm-mpu9150.so.1:_ZN3upm7MPU60X0C1Eih
libupm-mpu9150.so.1:_ZN3upm7MPU60X0C2Eih
libupm-mpu9150.so.1:_ZN3upm7MPU60X0D0Ev
libupm-mpu9150.so.1:_ZN3upm7MPU60X0D1Ev
libupm-mpu9150.so.1:_ZN3upm7MPU60X0D2Ev
libupm-mpu9150.so.1:_ZN3upm7MPU915015getMagnetometerEPfS1_S1_
libupm-mpu9150.so.1:_ZN3upm7MPU915015getMagnetometerEv
libupm-mpu9150.so.1:_ZN3upm7MPU91504initEv
libupm-mpu9150.so.1:_ZN3upm7MPU91506updateEv
libupm-mpu9150.so.1:_ZN3upm7MPU9150C1Eiiib
libupm-mpu9150.so.1:_ZN3upm7MPU9150C2Eiiib
libupm-mpu9150.so.1:_ZN3upm7MPU9150D0Ev
libupm-mpu9150.so.1:_ZN3upm7MPU9150D1Ev
libupm-mpu9150.so.1:_ZN3upm7MPU9150D2Ev
libupm-mpu9150.so.1:_ZN3upm7MPU925014getTemperatureEv
libupm-mpu9150.so.1:_ZN3upm7MPU9250C1Eiiib
libupm-mpu9150.so.1:_ZN3upm7MPU9250C2Eiiib
libupm-mpu9150.so.1:_ZN3upm7MPU9250D0Ev
libupm-mpu9150.so.1:_ZN3upm7MPU9250D1Ev
libupm-mpu9150.so.1:_ZN3upm7MPU9250D2Ev
libupm-mq303a.so.1:_ZN3upm6MQ303A12heaterEnableEb
libupm-mq303a.so.1:_ZN3upm6MQ303A5valueEv
libupm-mq303a.so.1:_ZN3upm6MQ303AC1Eii
libupm-mq303a.so.1:_ZN3upm6MQ303AC2Eii
libupm-mq303a.so.1:_ZN3upm6MQ303AD1Ev
libupm-mq303a.so.1:_ZN3upm6MQ303AD2Ev
libupm-ms5611.so.1:_ZN3upm6MS561113getPressurePaEv
libupm-ms5611.so.1:_ZN3upm6MS561115readRawPressureEv
libupm-ms5611.so.1:_ZN3upm6MS561115setOverSamplingENS0_7OsrModeE
libupm-ms5611.so.1:_ZN3upm6MS561118readRawTemperatureEv
libupm-ms5611.so.1:_ZN3upm6MS561121getTemperatureCelsiusEv
libupm-ms5611.so.1:_ZN3upm6MS56117delaymsEi
libupm-ms5611.so.1:_ZN3upm6MS56117readADCEi
libupm-ms5611.so.1:_ZN3upm6MS56118promCrc4Ev
libupm-ms5611.so.1:_ZN3upm6MS5611C1Eii
libupm-ms5611.so.1:_ZN3upm6MS5611C2Eii
libupm-ms5611.so.1:_ZN3upm6MS5611D0Ev
libupm-ms5611.so.1:_ZN3upm6MS5611D1Ev
libupm-ms5611.so.1:_ZN3upm6MS5611D2Ev
libupm-ms5611.so.1:_ZThn8_N3upm6MS561121getTemperatureCelsiusEv
libupm-ms5611.so.1:_ZThn8_N3upm6MS5611D0Ev
libupm-ms5611.so.1:_ZThn8_N3upm6MS5611D1Ev
libupm-ms5611.so.1:_ZTv0_n32_N3upm6MS5611D0Ev
libupm-ms5611.so.1:_ZTv0_n32_N3upm6MS5611D1Ev
libupm-ms5803.so.1:_ZN3upm6MS580311getPressureEv
libupm-ms5803.so.1:_ZN3upm6MS580314getTemperatureEv
libupm-ms5803.so.1:_ZN3upm6MS580314setPressureOSRE12MS5803_OSR_T
libupm-ms5803.so.1:_ZN3upm6MS580316loadCoefficientsEv
libupm-ms5803.so.1:_ZN3upm6MS580317setTemperatureOSRE12MS5803_OSR_T
libupm-ms5803.so.1:_ZN3upm6MS58035resetEv
libupm-ms5803.so.1:_ZN3upm6MS58036updateEv
libupm-ms5803.so.1:_ZN3upm6MS58037busReadB5cxx11Eii
libupm-ms5803.so.1:_ZN3upm6MS58038busWriteEiNSt7__cxx1112basic_stringIcSt11char_traitsIcESaIcEEE
libupm-ms5803.so.1:_ZN3upm6MS5803C1Eiii
libupm-ms5803.so.1:_ZN3upm6MS5803C2Eiii
libupm-ms5803.so.1:_ZN3upm6MS5803D1Ev
libupm-ms5803.so.1:_ZN3upm6MS5803D2Ev
libupm-my9221.so.1:_ZN3upm11GroveLEDBar11setBarLevelEhbj
libupm-my9221.so.1:_ZN3upm11GroveLEDBarC1Eiii
libupm-my9221.so.1:_ZN3upm11GroveLEDBarC2Eiii
libupm-my9221.so.1:_ZN3upm11GroveLEDBarD0Ev
libupm-my9221.so.1:_ZN3upm11GroveLEDBarD1Ev
libupm-my9221.so.1:_ZN3upm11GroveLEDBarD2Ev
libupm-my9221.so.1:_ZN3upm16GroveCircularLED10setSpinnerEh
libupm-my9221.so.1:_ZN3upm16GroveCircularLED8setLevelEhb
libupm-my9221.so.1:_ZN3upm16GroveCircularLEDC1Eii
libupm-my9221.so.1:_ZN3upm16GroveCircularLEDC2Eii
libupm-my9221.so.1:_ZN3upm16GroveCircularLEDD0Ev
libupm-my9221.so.1:_ZN3upm16GroveCircularLEDD1Ev
libupm-my9221.so.1:_ZN3upm16GroveCircularLEDD2Ev
libupm-my9221.so.1:_ZN3upm6MY922120setLowIntensityValueEi
libupm-my9221.so.1:_ZN3upm6MY922121setHighIntensityValueEi
libupm-my9221.so.1:_ZN3upm6MY92216setAllEv
libupm-my9221.so.1:_ZN3upm6MY92216setLEDEib
libupm-my9221.so.1:_ZN3upm6MY92217refreshEv
libupm-my9221.so.1:_ZN3upm6MY92218clearAllEv
libupm-my9221.so.1:_ZN3upm6MY9221C1Eiii
libupm-my9221.so.1:_ZN3upm6MY9221C2Eiii
libupm-my9221.so.1:_ZN3upm6MY9221D0Ev
libupm-my9221.so.1:_ZN3upm6MY9221D1Ev
libupm-my9221.so.1:_ZN3upm6MY9221D2Ev
libupm-nlgpio16.so.1:_ZN3upm8NLGPIO1610getVersionB5cxx11Ev
libupm-nlgpio16.so.1:_ZN3upm8NLGPIO1611gpioReadAllEv
libupm-nlgpio16.so.1:_ZN3upm8NLGPIO1611sendCommandENSt7__cxx1112basic_stringIcSt11char_traitsIcESaIcEEE
libupm-nlgpio16.so.1:_ZN3upm8NLGPIO1612gpioSetIODirEi
libupm-nlgpio16.so.1:_ZN3upm8NLGPIO1612gpioWriteAllEi
libupm-nlgpio16.so.1:_ZN3upm8NLGPIO1613dataAvailableEj
libupm-nlgpio16.so.1:_ZN3upm8NLGPIO1613gpioSetIOMaskEi
libupm-nlgpio16.so.1:_ZN3upm8NLGPIO1615analogReadValueEi
libupm-nlgpio16.so.1:_ZN3upm8NLGPIO1615analogReadVoltsEi
libupm-nlgpio16.so.1:_ZN3upm8NLGPIO165getIDB5cxx11Ev
libupm-nlgpio16.so.1:_ZN3upm8NLGPIO165setIDENSt7__cxx1112basic_stringIcSt11char_traitsIcESaIcEEE
libupm-nlgpio16.so.1:_ZN3upm8NLGPIO167gpioSetEi
libupm-nlgpio16.so.1:_ZN3upm8NLGPIO167readStrB5cxx11Ei
libupm-nlgpio16.so.1:_ZN3upm8NLGPIO168gpioReadEi
libupm-nlgpio16.so.1:_ZN3upm8NLGPIO168writeStrENSt7__cxx1112basic_stringIcSt11char_traitsIcESaIcEEE
libupm-nlgpio16.so.1:_ZN3upm8NLGPIO169gpioClearEi
libupm-nlgpio16.so.1:_ZN3upm8NLGPIO16C1ENSt7__cxx1112basic_stringIcSt11char_traitsIcESaIcEEE
libupm-nlgpio16.so.1:_ZN3upm8NLGPIO16C2ENSt7__cxx1112basic_stringIcSt11char_traitsIcESaIcEEE
libupm-nlgpio16.so.1:_ZN3upm8NLGPIO16D1Ev
libupm-nlgpio16.so.1:_ZN3upm8NLGPIO16D2Ev
libupm-nmea_gps.so.1:_ZN3upm7NMEAGPS10parseStartEv
libupm-nmea_gps.so.1:_ZN3upm7NMEAGPS10satellitesEv
libupm-nmea_gps.so.1:_ZN3upm7NMEAGPS11setBaudrateEj
libupm-nmea_gps.so.1:_ZN3upm7NMEAGPS12_parse_gpggaERKNSt7__cxx1112basic_stringIcSt11char_traitsIcESaIcEEE
libupm-nmea_gps.so.1:_ZN3upm7NMEAGPS12_parse_gpgllERKNSt7__cxx1112basic_stringIcSt11char_traitsIcESaIcEEE
libupm-nmea_gps.so.1:_ZN3upm7NMEAGPS12_parse_gpgsvERKNSt7__cxx1112basic_stringIcSt11char_traitsIcESaIcEEE
libupm-nmea_gps.so.1:_ZN3upm7NMEAGPS12_parse_gptxtERKNSt7__cxx1112basic_stringIcSt11char_traitsIcESaIcEEE
libupm-nmea_gps.so.1:_ZN3upm7NMEAGPS12fixQueueSizeEv
libupm-nmea_gps.so.1:_ZN3upm7NMEAGPS13_parse_threadEv
libupm-nmea_gps.so.1:_ZN3upm7NMEAGPS13dataAvailableEj
libupm-nmea_gps.so.1:_ZN3upm7NMEAGPS13getTxtMessageEv
libupm-nmea_gps.so.1:_ZN3upm7NMEAGPS14bytesPerSecondEv
libupm-nmea_gps.so.1:_ZN3upm7NMEAGPS14getRawSentenceB5cxx11Ev
libupm-nmea_gps.so.1:_ZN3upm7NMEAGPS16getMaxQueueDepthEv
libupm-nmea_gps.so.1:_ZN3upm7NMEAGPS16setMaxQueueDepthEm
libupm-nmea_gps.so.1:_ZN3upm7NMEAGPS17parseNMEASentenceERKNSt7__cxx1112basic_stringIcSt11char_traitsIcESaIcEEE
libupm-nmea_gps.so.1:_ZN3upm7NMEAGPS18sentencesPerSecondEv
libupm-nmea_gps.so.1:_ZN3upm7NMEAGPS19txtMessageQueueSizeEv
libupm-nmea_gps.so.1:_ZN3upm7NMEAGPS20rawSentenceQueueSizeEv
libupm-nmea_gps.so.1:_ZN3upm7NMEAGPS6enableEb
libupm-nmea_gps.so.1:_ZN3upm7NMEAGPS6getFixEv
libupm-nmea_gps.so.1:_ZN3upm7NMEAGPS7__str__B5cxx11Ev
libupm-nmea_gps.so.1:_ZN3upm7NMEAGPS7readStrB5cxx11Em
libupm-nmea_gps.so.1:_ZN3upm7NMEAGPS8writeStrERKNSt7__cxx1112basic_stringIcSt11char_traitsIcESaIcEEE
libupm-nmea_gps.so.1:_ZN3upm7NMEAGPS9parseStopEv
libupm-nmea_gps.so.1:_ZN3upm7NMEAGPSC1ERKNSt7__cxx1112basic_stringIcSt11char_traitsIcESaIcEEEj
libupm-nmea_gps.so.1:_ZN3upm7NMEAGPSC1Ejh
libupm-nmea_gps.so.1:_ZN3upm7NMEAGPSC1Ejji
libupm-nmea_gps.so.1:_ZN3upm7NMEAGPSC2ERKNSt7__cxx1112basic_stringIcSt11char_traitsIcESaIcEEEj
libupm-nmea_gps.so.1:_ZN3upm7NMEAGPSC2Ejh
libupm-nmea_gps.so.1:_ZN3upm7NMEAGPSC2Ejji
libupm-nmea_gps.so.1:_ZN3upm7NMEAGPSD1Ev
libupm-nmea_gps.so.1:_ZN3upm7NMEAGPSD2Ev
libupm-nmea_gps.so.1:_ZN3upm7gps_fix7__str__B5cxx11Ev
libupm-nmea_gps.so.1:_ZN3upm7nmeatxt7__str__B5cxx11Ev
libupm-nmea_gps.so.1:_ZN3upm8coord_DD7__str__B5cxx11Ev
libupm-nmea_gps.so.1:_ZN3upm9satellite7__str__B5cxx11Ev
libupm-nrf24l01.so.1:_Z16generic_callbackP8Callback
libupm-nrf24l01.so.1:_ZN3upm8NRF24L0110setChannelEh
libupm-nrf24l01.so.1:_ZN3upm8NRF24L0110setPayloadEh
libupm-nrf24l01.so.1:_ZN3upm8NRF24L0110writeBytesEPhS1_h
libupm-nrf24l01.so.1:_ZN3upm8NRF24L0111dataSendingEv
libupm-nrf24l01.so.1:_ZN3upm8NRF24L0111getRegisterEh
libupm-nrf24l01.so.1:_ZN3upm8NRF24L0111rxFifoEmptyEv
libupm-nrf24l01.so.1:_ZN3upm8NRF24L0111sendCommandEh
libupm-nrf24l01.so.1:_ZN3upm8NRF24L0111setRegisterEhh
libupm-nrf24l01.so.1:_ZN3upm8NRF24L0112pollListenerEv
libupm-nrf24l01.so.1:_ZN3upm8NRF24L0112readRegisterEhPhh
libupm-nrf24l01.so.1:_ZN3upm8NRF24L0112setSpeedRateENS_12speed_rate_tE
libupm-nrf24l01.so.1:_ZN3upm8NRF24L0113rxFlushBufferEv
libupm-nrf24l01.so.1:_ZN3upm8NRF24L0113txFlushBufferEv
libupm-nrf24l01.so.1:_ZN3upm8NRF24L0113writeRegisterEhPhh
libupm-nrf24l01.so.1:_ZN3upm8NRF24L0115blePacketEncodeEPhhh
libupm-nrf24l01.so.1:_ZN3upm8NRF24L0116sendBeaconingMsgEPh
libupm-nrf24l01.so.1:_ZN3upm8NRF24L0116setBeaconingModeEv
libupm-nrf24l01.so.1:_ZN3upm8NRF24L0116setSourceAddressEPh
libupm-nrf24l01.so.1:_ZN3upm8NRF24L0119setBroadcastAddressEPh
libupm-nrf24l01.so.1:_ZN3upm8NRF24L0121setDestinationAddressEPh
libupm-nrf24l01.so.1:_ZN3upm8NRF24L0122setDataReceivedHandlerEP8Callback
libupm-nrf24l01.so.1:_ZN3upm8NRF24L014csOnEv
libupm-nrf24l01.so.1:_ZN3upm8NRF24L014initEii
libupm-nrf24l01.so.1:_ZN3upm8NRF24L014sendEPh
libupm-nrf24l01.so.1:_ZN3upm8NRF24L014sendEv
libupm-nrf24l01.so.1:_ZN3upm8NRF24L015ceLowEv
libupm-nrf24l01.so.1:_ZN3upm8NRF24L015csOffEv
libupm-nrf24l01.so.1:_ZN3upm8NRF24L016bleCrcEPKhhPh
libupm-nrf24l01.so.1:_ZN3upm8NRF24L016ceHighEv
libupm-nrf24l01.so.1:_ZN3upm8NRF24L017getDataEPh
libupm-nrf24l01.so.1:_ZN3upm8NRF24L018setPowerENS_7power_tE
libupm-nrf24l01.so.1:_ZN3upm8NRF24L018swapbitsEh
libupm-nrf24l01.so.1:_ZN3upm8NRF24L019bleWhitenEPhhh
libupm-nrf24l01.so.1:_ZN3upm8NRF24L019configureEv
libupm-nrf24l01.so.1:_ZN3upm8NRF24L019dataReadyEv
libupm-nrf24l01.so.1:_ZN3upm8NRF24L019getStatusEv
libupm-nrf24l01.so.1:_ZN3upm8NRF24L019powerDownEv
libupm-nrf24l01.so.1:_ZN3upm8NRF24L019rxPowerUpEv
libupm-nrf24l01.so.1:_ZN3upm8NRF24L019txPowerUpEv
libupm-nrf24l01.so.1:_ZN3upm8NRF24L01C1Eii
libupm-nrf24l01.so.1:_ZN3upm8NRF24L01C2Eii
libupm-nrf8001.so.1:_Z12do_aci_setupP11aci_state_t
libupm-nrf8001.so.1:_Z14aci_queue_initP11aci_queue_t
libupm-nrf8001.so.1:_Z14aci_queue_peekP11aci_queue_tP14hal_aci_data_t
libupm-nrf8001.so.1:_Z14aci_setup_fillP11aci_state_tPh
libupm-nrf8001.so.1:_Z15acil_decode_evtPhP9aci_evt_t
libupm-nrf8001.so.1:_Z15acil_encode_cmdPhP9aci_cmd_t
libupm-nrf8001.so.1:_Z15hal_aci_tl_initP10aci_pins_tb
libupm-nrf8001.so.1:_Z15hal_aci_tl_sendP14hal_aci_data_t
libupm-nrf8001.so.1:_Z17aci_queue_dequeueP11aci_queue_tP14hal_aci_data_t
libupm-nrf8001.so.1:_Z17aci_queue_enqueueP11aci_queue_tP14hal_aci_data_t
libupm-nrf8001.so.1:_Z17aci_queue_is_fullP11aci_queue_t
libupm-nrf8001.so.1:_Z18aci_queue_is_emptyP11aci_queue_t
libupm-nrf8001.so.1:_Z18hal_aci_tl_q_flushv
libupm-nrf8001.so.1:_Z18lib_aci_board_initP11aci_state_t
libupm-nrf8001.so.1:_Z20acil_decode_evt_echoPhP21aci_evt_params_echo_t
libupm-nrf8001.so.1:_Z20acil_encode_cmd_bondPhP21aci_cmd_params_bond_t
libupm-nrf8001.so.1:_Z20hal_aci_tl_event_getP14hal_aci_data_t
libupm-nrf8001.so.1:_Z20hal_aci_tl_pin_resetv
libupm-nrf8001.so.1:_Z20hal_aci_tl_rx_q_fullv
libupm-nrf8001.so.1:_Z20hal_aci_tl_tx_q_fullv
libupm-nrf8001.so.1:_Z21acil_encode_cmd_setupPhP22aci_cmd_params_setup_th
libupm-nrf8001.so.1:_Z21acil_encode_cmd_sleepPh
libupm-nrf8001.so.1:_Z21hal_aci_tl_event_peekP14hal_aci_data_t
libupm-nrf8001.so.1:_Z21hal_aci_tl_rx_q_emptyv
libupm-nrf8001.so.1:_Z21hal_aci_tl_tx_q_emptyv
libupm-nrf8001.so.1:_Z21init_local_interfacesP11aci_state_thhh
libupm-nrf8001.so.1:_Z22acil_decode_evt_creditPhP28aci_evt_params_data_credit_t
libupm-nrf8001.so.1:_Z22acil_decode_evt_timingPhP23aci_evt_params_timing_t
libupm-nrf8001.so.1:_Z22acil_encode_cmd_wakeupPh
libupm-nrf8001.so.1:_Z22close_local_interfacesP11aci_state_t
libupm-nrf8001.so.1:_Z22hal_aci_tl_debug_printb
libupm-nrf8001.so.1:_Z23aci_queue_peek_from_isrP11aci_queue_tP14hal_aci_data_t
libupm-nrf8001.so.1:_Z23acil_encode_cmd_connectPhP24aci_cmd_params_connect_t
libupm-nrf8001.so.1:_Z23acil_encode_cmd_dtm_cmdPhP24aci_cmd_params_dtm_cmd_t
libupm-nrf8001.so.1:_Z23acil_encode_cmd_set_keyPhP24aci_cmd_params_set_key_t
libupm-nrf8001.so.1:_Z24acil_decode_evt_data_ackPhP25aci_evt_params_data_ack_t
libupm-nrf8001.so.1:_Z24acil_decode_evt_hw_errorPhP25aci_evt_params_hw_error_t
libupm-nrf8001.so.1:_Z24acil_encode_cmd_echo_msgPhP21aci_cmd_params_echo_th
libupm-nrf8001.so.1:_Z25acil_decode_evt_connectedPhP26aci_evt_params_connected_t
libupm-nrf8001.so.1:_Z25acil_encode_cmd_broadcastPhP26aci_cmd_params_broadcast_t
libupm-nrf8001.so.1:_Z25acil_encode_cmd_send_dataPhP26aci_cmd_params_send_data_th
libupm-nrf8001.so.1:_Z26aci_queue_dequeue_from_isrP11aci_queue_tP14hal_aci_data_t
libupm-nrf8001.so.1:_Z26aci_queue_enqueue_from_isrP11aci_queue_tP14hal_aci_data_t
libupm-nrf8001.so.1:_Z26aci_queue_is_full_from_isrP11aci_queue_t
libupm-nrf8001.so.1:_Z26acil_decode_evt_pipe_errorPhP27aci_evt_params_pipe_error_t
libupm-nrf8001.so.1:_Z26acil_encode_baseband_resetPh
libupm-nrf8001.so.1:_Z26acil_encode_cmd_disconnectPhP27aci_cmd_params_disconnect_t
libupm-nrf8001.so.1:_Z26acil_encode_direct_connectPh
libupm-nrf8001.so.1:_Z27aci_queue_is_empty_from_isrP11aci_queue_t
libupm-nrf8001.so.1:_Z27acil_decode_evt_bond_statusPhP28aci_evt_params_bond_status_t
libupm-nrf8001.so.1:_Z27acil_decode_evt_key_requestPhP28aci_evt_params_key_request_t
libupm-nrf8001.so.1:_Z27acil_decode_evt_pipe_statusPhP28aci_evt_params_pipe_status_t
libupm-nrf8001.so.1:_Z27acil_encode_cmd_get_addressPh
libupm-nrf8001.so.1:_Z27acil_encode_cmd_temparaturePh
libupm-nrf8001.so.1:_Z28acil_decode_evt_disconnectedPhP29aci_evt_params_disconnected_t
libupm-nrf8001.so.1:_Z28acil_encode_cmd_request_dataPhP29aci_cmd_params_request_data_t
libupm-nrf8001.so.1:_Z29acil_decode_evt_data_receivedPhP30aci_evt_params_data_received_t
libupm-nrf8001.so.1:_Z29acil_encode_cmd_battery_levelPh
libupm-nrf8001.so.1:_Z29acil_encode_cmd_send_data_ackPhh
libupm-nrf8001.so.1:_Z29acil_encode_cmd_set_test_modePhP21aci_cmd_params_test_t
libupm-nrf8001.so.1:_Z30acil_decode_evt_device_startedPhP31aci_evt_params_device_started_t
libupm-nrf8001.so.1:_Z30acil_encode_cmd_open_adv_pipesPhP30aci_cmd_params_open_adv_pipe_t
libupm-nrf8001.so.1:_Z30acil_encode_cmd_send_data_nackPhhh
libupm-nrf8001.so.1:_Z30acil_encode_cmd_set_local_dataPhP31aci_cmd_params_set_local_data_th
libupm-nrf8001.so.1:_Z31acil_decode_evt_display_passkeyPhP32aci_evt_params_display_passkey_t
libupm-nrf8001.so.1:_Z31acil_encode_cmd_set_app_latencyPhP32aci_cmd_params_set_app_latency_t
libupm-nrf8001.so.1:_Z32acil_decode_evt_command_responsePhP24aci_evt_params_cmd_rsp_t
libupm-nrf8001.so.1:_Z32acil_encode_cmd_open_remote_pipePhP33aci_cmd_params_open_remote_pipe_t
libupm-nrf8001.so.1:_Z33acil_encode_cmd_change_timing_reqPhP30aci_cmd_params_change_timing_t
libupm-nrf8001.so.1:_Z33acil_encode_cmd_close_remote_pipePhP34aci_cmd_params_close_remote_pipe_t
libupm-nrf8001.so.1:_Z33acil_encode_cmd_read_dynamic_dataPh
libupm-nrf8001.so.1:_Z34acil_encode_cmd_get_device_versionPh
libupm-nrf8001.so.1:_Z34acil_encode_cmd_set_radio_tx_powerPhP29aci_cmd_params_set_tx_power_t
libupm-nrf8001.so.1:_Z34acil_encode_cmd_write_dynamic_dataPhhS_h
libupm-nrf8001.so.1:_Z37acil_encode_cmd_bond_security_requestPh
libupm-nrf8001.so.1:_Z42acil_encode_cmd_change_timing_req_GAP_PPCPPh
libupm-nrf8001.so.1:lib_aci_bond
libupm-nrf8001.so.1:lib_aci_bond_request
libupm-nrf8001.so.1:lib_aci_broadcast
libupm-nrf8001.so.1:lib_aci_change_timing
libupm-nrf8001.so.1:lib_aci_change_timing_GAP_PPCP
libupm-nrf8001.so.1:lib_aci_close_remote_pipe
libupm-nrf8001.so.1:lib_aci_command_queue_empty
libupm-nrf8001.so.1:lib_aci_command_queue_full
libupm-nrf8001.so.1:lib_aci_connect
libupm-nrf8001.so.1:lib_aci_debug_print
libupm-nrf8001.so.1:lib_aci_device_version
libupm-nrf8001.so.1:lib_aci_direct_connect
libupm-nrf8001.so.1:lib_aci_disconnect
libupm-nrf8001.so.1:lib_aci_dtm_command
libupm-nrf8001.so.1:lib_aci_echo_msg
libupm-nrf8001.so.1:lib_aci_event_get
libupm-nrf8001.so.1:lib_aci_event_peek
libupm-nrf8001.so.1:lib_aci_event_queue_empty
libupm-nrf8001.so.1:lib_aci_event_queue_full
libupm-nrf8001.so.1:lib_aci_flush
libupm-nrf8001.so.1:lib_aci_get_address
libupm-nrf8001.so.1:lib_aci_get_battery_level
libupm-nrf8001.so.1:lib_aci_get_cx_interval
libupm-nrf8001.so.1:lib_aci_get_cx_interval_ms
libupm-nrf8001.so.1:lib_aci_get_nb_available_credits
libupm-nrf8001.so.1:lib_aci_get_slave_latency
libupm-nrf8001.so.1:lib_aci_get_temperature
libupm-nrf8001.so.1:lib_aci_init
libupm-nrf8001.so.1:lib_aci_is_discovery_finished
libupm-nrf8001.so.1:lib_aci_is_pipe_available
libupm-nrf8001.so.1:lib_aci_is_pipe_closed
libupm-nrf8001.so.1:lib_aci_open_adv_pipe
libupm-nrf8001.so.1:lib_aci_open_adv_pipes
libupm-nrf8001.so.1:lib_aci_open_remote_pipe
libupm-nrf8001.so.1:lib_aci_pin_reset
libupm-nrf8001.so.1:lib_aci_radio_reset
libupm-nrf8001.so.1:lib_aci_read_dynamic_data
libupm-nrf8001.so.1:lib_aci_request_data
libupm-nrf8001.so.1:lib_aci_send_ack
libupm-nrf8001.so.1:lib_aci_send_data
libupm-nrf8001.so.1:lib_aci_send_nack
libupm-nrf8001.so.1:lib_aci_set_app_latency
libupm-nrf8001.so.1:lib_aci_set_key
libupm-nrf8001.so.1:lib_aci_set_local_data
libupm-nrf8001.so.1:lib_aci_set_tx_power
libupm-nrf8001.so.1:lib_aci_sleep
libupm-nrf8001.so.1:lib_aci_test
libupm-nrf8001.so.1:lib_aci_wakeup
libupm-nrf8001.so.1:lib_aci_write_dynamic_data
libupm-nunchuck.so.1:_ZN3upm8NUNCHUCK6updateEv
libupm-nunchuck.so.1:_ZN3upm8NUNCHUCKC1Ei
libupm-nunchuck.so.1:_ZN3upm8NUNCHUCKC2Ei
libupm-nunchuck.so.1:_ZN3upm8NUNCHUCKD0Ev
libupm-nunchuck.so.1:_ZN3upm8NUNCHUCKD1Ev
libupm-nunchuck.so.1:_ZN3upm8NUNCHUCKD2Ev
libupm-o2.so.1:_ZN3upm2O212voltageValueEv
libupm-o2.so.1:_ZN3upm2O2C1Ei
libupm-o2.so.1:_ZN3upm2O2C2Ei
libupm-o2.so.1:_ZN3upm2O2D1Ev
libupm-o2.so.1:_ZN3upm2O2D2Ev
libupm-otp538u.so.1:_ZN3upm7OTP538U17objectTemperatureEv
libupm-otp538u.so.1:_ZN3upm7OTP538U18ambientTemperatureEv
libupm-otp538u.so.1:_ZN3upm7OTP538UC1Eiif
libupm-otp538u.so.1:_ZN3upm7OTP538UC2Eiif
libupm-otp538u.so.1:_ZN3upm7OTP538UD1Ev
libupm-otp538u.so.1:_ZN3upm7OTP538UD2Ev
libupm-p9813.so.1:_ZN3upm5P981310setAllLedsEhhh
libupm-p9813.so.1:_ZN3upm5P98136setLedEthhh
libupm-p9813.so.1:_ZN3upm5P98137setLedsEttSt6vectorINS_8RgbColorESaIS2_EE
libupm-p9813.so.1:_ZN3upm5P98137setLedsEtthhh
libupm-p9813.so.1:_ZN3upm5P98138sendByteEh
libupm-p9813.so.1:_ZN3upm5P98139pushStateEv
libupm-p9813.so.1:_ZN3upm5P9813C1Etttb
libupm-p9813.so.1:_ZN3upm5P9813C2Etttb
libupm-pca9685.so.1:_ZN3upm7PCA968510ledFullOffEhb
libupm-pca9685.so.1:_ZN3upm7PCA968510ledOffTimeEht
libupm-pca9685.so.1:_ZN3upm7PCA968511setPrescaleEh
libupm-pca9685.so.1:_ZN3upm7PCA968512setModeSleepEb
libupm-pca9685.so.1:_ZN3upm7PCA968517setPrescaleFromHzEff
libupm-pca9685.so.1:_ZN3upm7PCA968519enableAutoIncrementEb
libupm-pca9685.so.1:_ZN3upm7PCA96858readByteEh
libupm-pca9685.so.1:_ZN3upm7PCA96858readWordEh
libupm-pca9685.so.1:_ZN3upm7PCA96859ledFullOnEhb
libupm-pca9685.so.1:_ZN3upm7PCA96859ledOnTimeEht
libupm-pca9685.so.1:_ZN3upm7PCA96859writeByteEhh
libupm-pca9685.so.1:_ZN3upm7PCA96859writeWordEht
libupm-pca9685.so.1:_ZN3upm7PCA9685C1Eihb
libupm-pca9685.so.1:_ZN3upm7PCA9685C2Eihb
libupm-pca9685.so.1:_ZN3upm7PCA9685D1Ev
libupm-pca9685.so.1:_ZN3upm7PCA9685D2Ev
libupm-pn532.so.1:_ZN3upm5PN53212dataReadyISREPv
libupm-pn532.so.1:_ZN3upm5PN53212waitForReadyEt
libupm-pn532.so.1:_ZN3upm5PN53212writeCommandEPhh
libupm-pn532.so.1:_ZN3upm5PN53214inDataExchangeEPhhS1_S1_
libupm-pn532.so.1:_ZN3upm5PN53216ntag2xx_ReadPageEhPh
libupm-pn532.so.1:_ZN3upm5PN53217ntag2xx_WritePageEhPh
libupm-pn532.so.1:_ZN3upm5PN53218getFirmwareVersionEv
libupm-pn532.so.1:_ZN3upm5PN53219inListPassiveTargetEv
libupm-pn532.so.1:_ZN3upm5PN53219readPassiveTargetIDENS0_6BAUD_TEPhS2_t
libupm-pn532.so.1:_ZN3upm5PN53219sendCommandCheckAckEPhht
libupm-pn532.so.1:_ZN3upm5PN53220ntag2xx_WriteNDEFURIENS0_10NDEF_URI_TEPch
libupm-pn532.so.1:_ZN3upm5PN53224mifareclassic_FormatNDEFEv
libupm-pn532.so.1:_ZN3upm5PN53226mifareclassic_IsFirstBlockEj
libupm-pn532.so.1:_ZN3upm5PN53226mifareclassic_WriteNDEFURIEhNS0_10NDEF_URI_TEPKc
libupm-pn532.so.1:_ZN3upm5PN53227mifareclassic_ReadDataBlockEhPh
libupm-pn532.so.1:_ZN3upm5PN53227setPassiveActivationRetriesEh
libupm-pn532.so.1:_ZN3upm5PN53228mifareclassic_IsTrailerBlockEj
libupm-pn532.so.1:_ZN3upm5PN53228mifareclassic_WriteDataBlockEhPh
libupm-pn532.so.1:_ZN3upm5PN53231mifareclassic_AuthenticateBlockEPhhjhS1_
libupm-pn532.so.1:_ZN3upm5PN5324initEv
libupm-pn532.so.1:_ZN3upm5PN5327isReadyEv
libupm-pn532.so.1:_ZN3upm5PN5327readAckEv
libupm-pn532.so.1:_ZN3upm5PN5327tagTypeEv
libupm-pn532.so.1:_ZN3upm5PN5328readDataEPhh
libupm-pn532.so.1:_ZN3upm5PN5329SAMConfigEv
libupm-pn532.so.1:_ZN3upm5PN532C1Eiiih
libupm-pn532.so.1:_ZN3upm5PN532C2Eiiih
libupm-pn532.so.1:_ZN3upm5PN532D1Ev
libupm-pn532.so.1:_ZN3upm5PN532D2Ev
libupm-ppd42ns.so.1:_ZN3upm7PPD42NS7getDataEv
libupm-ppd42ns.so.1:_ZN3upm7PPD42NSC1Ei
libupm-ppd42ns.so.1:_ZN3upm7PPD42NSC2Ei
libupm-ppd42ns.so.1:_ZN3upm7PPD42NSD1Ev
libupm-ppd42ns.so.1:_ZN3upm7PPD42NSD2Ev
libupm-pulsensor.so.1:_ZN3upm9Pulsensor12stop_samplerEv
libupm-pulsensor.so.1:_ZN3upm9Pulsensor13start_samplerEv
libupm-pulsensor.so.1:_ZN3upm9Pulsensor9do_sampleEPv
libupm-pulsensor.so.1:_ZN3upm9PulsensorC1EP8Callback
libupm-pulsensor.so.1:_ZN3upm9PulsensorC2EP8Callback
libupm-relay.so.1:_ZN3upm5Relay2onEv
libupm-relay.so.1:_ZN3upm5Relay3offEv
libupm-relay.so.1:_ZN3upm5Relay4isOnEv
libupm-relay.so.1:_ZN3upm5Relay5isOffEv
libupm-relay.so.1:_ZN3upm5RelayC1Ej
libupm-relay.so.1:_ZN3upm5RelayC2Ej
libupm-relay.so.1:_ZN3upm5RelayD1Ev
libupm-relay.so.1:_ZN3upm5RelayD2Ev
libupm-rf22.so.1:_ZN3upm4RF2210clearRxBufEv
libupm-rf22.so.1:_ZN3upm4RF2210clearTxBufEv
libupm-rf22.so.1:_ZN3upm4RF2210headerFromEv
libupm-rf22.so.1:_ZN3upm4RF2210resetFifosEv
libupm-rf22.so.1:_ZN3upm4RF2210setTxPowerEh
libupm-rf22.so.1:_ZN3upm4RF2210statusReadEv
libupm-rf22.so.1:_ZN3upm4RF2211appendTxBufEPKhh
libupm-rf22.so.1:_ZN3upm4RF2211headerFlagsEv
libupm-rf22.so.1:_ZN3upm4RF2211printBufferEPKcPKhh
libupm-rf22.so.1:_ZN3upm4RF2211resetRxFifoEv
libupm-rf22.so.1:_ZN3upm4RF2211resetTxFifoEv
libupm-rf22.so.1:_ZN3upm4RF2211setHeaderIdEh
libupm-rf22.so.1:_ZN3upm4RF2211setHeaderToEh
libupm-rf22.so.1:_ZN3upm4RF2211setModeIdleEv
libupm-rf22.so.1:_ZN3upm4RF2212getTimestampEv
libupm-rf22.so.1:_ZN3upm4RF2212setFHChannelEh
libupm-rf22.so.1:_ZN3upm4RF2212setFrequencyEff
libupm-rf22.so.1:_ZN3upm4RF2212setSyncWordsEPKhh
libupm-rf22.so.1:_ZN3upm4RF2212setWutPeriodEthh
libupm-rf22.so.1:_ZN3upm4RF2212spiBurstReadEhPhh
libupm-rf22.so.1:_ZN3upm4RF2213setFHStepSizeEh
libupm-rf22.so.1:_ZN3upm4RF2213setHeaderFromEh
libupm-rf22.so.1:_ZN3upm4RF2213spiBurstWriteEhPKhh
libupm-rf22.so.1:_ZN3upm4RF2213startTransmitEv
libupm-rf22.so.1:_ZN3upm4RF2213waitAvailableEv
libupm-rf22.so.1:_ZN3upm4RF2214setHeaderFlagsEh
libupm-rf22.so.1:_ZN3upm4RF2214setModemConfigENS0_17ModemConfigChoiceE
libupm-rf22.so.1:_ZN3upm4RF2214setPromiscuousEh
libupm-rf22.so.1:_ZN3upm4RF2214waitPacketSentEv
libupm-rf22.so.1:_ZN3upm4RF2215ezmacStatusReadEv
libupm-rf22.so.1:_ZN3upm4RF2215handleInterruptEv
libupm-rf22.so.1:_ZN3upm4RF2215restartTransmitEv
libupm-rf22.so.1:_ZN3upm4RF2215temperatureReadEhh
libupm-rf22.so.1:_ZN3upm4RF2216readNextFragmentEv
libupm-rf22.so.1:_ZN3upm4RF2216sendNextFragmentEv
libupm-rf22.so.1:_ZN3upm4RF2217setModemRegistersEPKNS0_11ModemConfigE
libupm-rf22.so.1:_ZN3upm4RF2217setPreambleLengthEh
libupm-rf22.so.1:_ZN3upm4RF2220waitAvailableTimeoutEm
libupm-rf22.so.1:_ZN3upm4RF2223handleExternalInterruptEv
libupm-rf22.so.1:_ZN3upm4RF2226handleWakeupTimerInterruptEv
libupm-rf22.so.1:_ZN3upm4RF223isrEPv
libupm-rf22.so.1:_ZN3upm4RF224initEv
libupm-rf22.so.1:_ZN3upm4RF224modeEv
libupm-rf22.so.1:_ZN3upm4RF224recvEPhS1_
libupm-rf22.so.1:_ZN3upm4RF224sendEPKhh
libupm-rf22.so.1:_ZN3upm4RF225resetEv
libupm-rf22.so.1:_ZN3upm4RF227adcReadEhhhh
libupm-rf22.so.1:_ZN3upm4RF227setModeEh
libupm-rf22.so.1:_ZN3upm4RF227spiReadEh
libupm-rf22.so.1:_ZN3upm4RF227wutReadEv
libupm-rf22.so.1:_ZN3upm4RF228headerIdEv
libupm-rf22.so.1:_ZN3upm4RF228headerToEv
libupm-rf22.so.1:_ZN3upm4RF228lastRssiEv
libupm-rf22.so.1:_ZN3upm4RF228rssiReadEv
libupm-rf22.so.1:_ZN3upm4RF228spiWriteEhh
libupm-rf22.so.1:_ZN3upm4RF229availableEv
libupm-rf22.so.1:_ZN3upm4RF229fillTxBufEPKhh
libupm-rf22.so.1:_ZN3upm4RF229setModeRxEv
libupm-rf22.so.1:_ZN3upm4RF229setModeTxEv
libupm-rf22.so.1:_ZN3upm4RF22C1Eiii
libupm-rf22.so.1:_ZN3upm4RF22C2Eiii
libupm-rf22.so.1:_ZN3upm4RF22D0Ev
libupm-rf22.so.1:_ZN3upm4RF22D1Ev
libupm-rf22.so.1:_ZN3upm4RF22D2Ev
libupm-rfr359f.so.1:_ZN3upm7RFR359F14objectDetectedEv
libupm-rfr359f.so.1:_ZN3upm7RFR359FC1Ei
libupm-rfr359f.so.1:_ZN3upm7RFR359FC2Ei
libupm-rfr359f.so.1:_ZN3upm7RFR359FD1Ev
libupm-rfr359f.so.1:_ZN3upm7RFR359FD2Ev
libupm-rgbringcoder.so.1:_ZN3upm12RGBRingCoder11setRingLEDSEt
libupm-rgbringcoder.so.1:_ZN3upm12RGBRingCoder14getButtonStateEv
libupm-rgbringcoder.so.1:_ZN3upm12RGBRingCoder16interruptHandlerEPv
libupm-rgbringcoder.so.1:_ZN3upm12RGBRingCoder9setRGBLEDEfff
libupm-rgbringcoder.so.1:_ZN3upm12RGBRingCoderC1Eiiiiiiiiiii
libupm-rgbringcoder.so.1:_ZN3upm12RGBRingCoderC2Eiiiiiiiiiii
libupm-rgbringcoder.so.1:_ZN3upm12RGBRingCoderD1Ev
libupm-rgbringcoder.so.1:_ZN3upm12RGBRingCoderD2Ev
libupm-rhusb.so.1:_ZN3upm5RHUSB11getHumidityEv
libupm-rhusb.so.1:_ZN3upm5RHUSB11sendCommandENSt7__cxx1112basic_stringIcSt11char_traitsIcESaIcEEE
libupm-rhusb.so.1:_ZN3upm5RHUSB13dataAvailableEj
libupm-rhusb.so.1:_ZN3upm5RHUSB13getFirmwareIDB5cxx11Ev
libupm-rhusb.so.1:_ZN3upm5RHUSB14getTemperatureEb
libupm-rhusb.so.1:_ZN3upm5RHUSB6updateEv
libupm-rhusb.so.1:_ZN3upm5RHUSB7readStrB5cxx11Ei
libupm-rhusb.so.1:_ZN3upm5RHUSB8writeStrENSt7__cxx1112basic_stringIcSt11char_traitsIcESaIcEEE
libupm-rhusb.so.1:_ZN3upm5RHUSBC1ENSt7__cxx1112basic_stringIcSt11char_traitsIcESaIcEEE
libupm-rhusb.so.1:_ZN3upm5RHUSBC2ENSt7__cxx1112basic_stringIcSt11char_traitsIcESaIcEEE
libupm-rhusb.so.1:_ZN3upm5RHUSBD1Ev
libupm-rhusb.so.1:_ZN3upm5RHUSBD2Ev
libupm-rn2903.so.1:_ZN3upm6RN290311getResponseB5cxx11Ev
libupm-rn2903.so.1:_ZN3upm6RN290311setBaudrateEj
libupm-rn2903.so.1:_ZN3upm6RN290312getDeviceEUIEv
libupm-rn2903.so.1:_ZN3upm6RN290312getMacStatusEv
libupm-rn2903.so.1:_ZN3upm6RN290312setDeviceEUIENSt7__cxx1112basic_stringIcSt11char_traitsIcESaIcEEE
libupm-rn2903.so.1:_ZN3upm6RN290313dataAvailableEj
libupm-rn2903.so.1:_ZN3upm6RN290313getDeviceAddrEv
libupm-rn2903.so.1:_ZN3upm6RN290313macSetBatteryEi
libupm-rn2903.so.1:_ZN3upm6RN290313setDeviceAddrENSt7__cxx1112basic_stringIcSt11char_traitsIcESaIcEEE
libupm-rn2903.so.1:_ZN3upm6RN290314commandWithArgENSt7__cxx1112basic_stringIcSt11char_traitsIcESaIcEEES6_
libupm-rn2903.so.1:_ZN3upm6RN290314getHardwareEUIB5cxx11Ev
libupm-rn2903.so.1:_ZN3upm6RN290314getResponseLenEv
libupm-rn2903.so.1:_ZN3upm6RN290314setFlowControlE21RN2903_FLOW_CONTROL_T
libupm-rn2903.so.1:_ZN3upm6RN290315updateMacStatusEv
libupm-rn2903.so.1:_ZN3upm6RN290315waitForResponseEi
libupm-rn2903.so.1:_ZN3upm6RN290316getMacStatusWordEv
libupm-rn2903.so.1:_ZN3upm6RN290317getApplicationEUIEv
libupm-rn2903.so.1:_ZN3upm6RN290317getApplicationKeyEv
libupm-rn2903.so.1:_ZN3upm6RN290317getRadioRxPayloadB5cxx11Ev
libupm-rn2903.so.1:_ZN3upm6RN290317setApplicationEUIENSt7__cxx1112basic_stringIcSt11char_traitsIcESaIcEEE
libupm-rn2903.so.1:_ZN3upm6RN290317setApplicationKeyENSt7__cxx1112basic_stringIcSt11char_traitsIcESaIcEEE
libupm-rn2903.so.1:_ZN3upm6RN290319setResponseWaitTimeEj
libupm-rn2903.so.1:_ZN3upm6RN290320setNetworkSessionKeyENSt7__cxx1112basic_stringIcSt11char_traitsIcESaIcEEE
libupm-rn2903.so.1:_ZN3upm6RN290320setResponse2WaitTimeEj
libupm-rn2903.so.1:_ZN3upm6RN290324setApplicationSessionKeyENSt7__cxx1112basic_stringIcSt11char_traitsIcESaIcEEE
libupm-rn2903.so.1:_ZN3upm6RN29034findENSt7__cxx1112basic_stringIcSt11char_traitsIcESaIcEEE
libupm-rn2903.so.1:_ZN3upm6RN29034joinE18RN2903_JOIN_TYPE_T
libupm-rn2903.so.1:_ZN3upm6RN29034readB5cxx11Ei
libupm-rn2903.so.1:_ZN3upm6RN29035drainEv
libupm-rn2903.so.1:_ZN3upm6RN29035macTxE21RN2903_MAC_MSG_TYPE_TiNSt7__cxx1112basic_stringIcSt11char_traitsIcESaIcEEE
libupm-rn2903.so.1:_ZN3upm6RN29035resetEv
libupm-rn2903.so.1:_ZN3upm6RN29035toHexENSt7__cxx1112basic_stringIcSt11char_traitsIcESaIcEEE
libupm-rn2903.so.1:_ZN3upm6RN29035writeENSt7__cxx1112basic_stringIcSt11char_traitsIcESaIcEEE
libupm-rn2903.so.1:_ZN3upm6RN29037commandENSt7__cxx1112basic_stringIcSt11char_traitsIcESaIcEEE
libupm-rn2903.so.1:_ZN3upm6RN29037fromHexENSt7__cxx1112basic_stringIcSt11char_traitsIcESaIcEEE
libupm-rn2903.so.1:_ZN3upm6RN29037macSaveEv
libupm-rn2903.so.1:_ZN3upm6RN29037radioRxEi
libupm-rn2903.so.1:_ZN3upm6RN29037radioTxENSt7__cxx1112basic_stringIcSt11char_traitsIcESaIcEEE
libupm-rn2903.so.1:_ZN3upm6RN29038autobaudEi
libupm-rn2903.so.1:_ZN3upm6RN29038macPauseEv
libupm-rn2903.so.1:_ZN3upm6RN29038setDebugEb
libupm-rn2903.so.1:_ZN3upm6RN29039macResumeEv
libupm-rn2903.so.1:_ZN3upm6RN2903C1ENSt7__cxx1112basic_stringIcSt11char_traitsIcESaIcEEEj
libupm-rn2903.so.1:_ZN3upm6RN2903C1Ejj
libupm-rn2903.so.1:_ZN3upm6RN2903C2ENSt7__cxx1112basic_stringIcSt11char_traitsIcESaIcEEEj
libupm-rn2903.so.1:_ZN3upm6RN2903C2Ejj
libupm-rn2903.so.1:_ZN3upm6RN2903D0Ev
libupm-rn2903.so.1:_ZN3upm6RN2903D1Ev
libupm-rn2903.so.1:_ZN3upm6RN2903D2Ev
libupm-rotary.so.1:_ZN3upm6Rotary7abs_degEv
libupm-rotary.so.1:_ZN3upm6Rotary7abs_radEv
libupm-rotary.so.1:_ZN3upm6Rotary7rel_degEv
libupm-rotary.so.1:_ZN3upm6Rotary7rel_radEv
libupm-rotary.so.1:_ZN3upm6Rotary9abs_valueEv
libupm-rotary.so.1:_ZN3upm6Rotary9rel_valueEv
libupm-rotary.so.1:_ZN3upm6RotaryC1Ej
libupm-rotary.so.1:_ZN3upm6RotaryC2Ej
libupm-rotary.so.1:_ZN3upm6RotaryD1Ev
libupm-rotary.so.1:_ZN3upm6RotaryD2Ev
libupm-rotaryencoder.so.1:_ZN3upm13RotaryEncoder12initPositionEi
libupm-rotaryencoder.so.1:_ZN3upm13RotaryEncoder8positionEv
libupm-rotaryencoder.so.1:_ZN3upm13RotaryEncoderC1Eii
libupm-rotaryencoder.so.1:_ZN3upm13RotaryEncoderC2Eii
libupm-rotaryencoder.so.1:_ZN3upm13RotaryEncoderD1Ev
libupm-rotaryencoder.so.1:_ZN3upm13RotaryEncoderD2Ev
libupm-rpr220.so.1:_ZN3upm6RPR22010installISREPFvPvES1_
libupm-rpr220.so.1:_ZN3upm6RPR22012uninstallISREv
libupm-rpr220.so.1:_ZN3upm6RPR22013blackDetectedEv
libupm-rpr220.so.1:_ZN3upm6RPR220C1Ei
libupm-rpr220.so.1:_ZN3upm6RPR220C2Ei
libupm-rpr220.so.1:_ZN3upm6RPR220D1Ev
libupm-rpr220.so.1:_ZN3upm6RPR220D2Ev
libupm-rsc.so.1:_ZN3upm3RSC11getPressureEv
libupm-rsc.so.1:_ZN3upm3RSC11setDataRateE13RSC_DATA_RATE
libupm-rsc.so.1:_ZN3upm3RSC13getSensorNameB5cxx11Ev
libupm-rsc.so.1:_ZN3upm3RSC14getTemperatureEv
libupm-rsc.so.1:_ZN3upm3RSC15getPressureTypeB5cxx11Ev
libupm-rsc.so.1:_ZN3upm3RSC15getPressureUnitB5cxx11Ev
libupm-rsc.so.1:_ZN3upm3RSC16getPressureRangeEv
libupm-rsc.so.1:_ZN3upm3RSC18getInitialADCStateEv
libupm-rsc.so.1:_ZN3upm3RSC18getMinimumPressureEv
libupm-rsc.so.1:_ZN3upm3RSC18updateCoefficientsEv
libupm-rsc.so.1:_ZN3upm3RSC21getSensorSerialNumberB5cxx11Ev
libupm-rsc.so.1:_ZN3upm3RSC7setModeE8RSC_MODE
libupm-rsc.so.1:_ZN3upm3RSC8setupADCEPh
libupm-rsc.so.1:_ZN3upm3RSCC1Ehhh
libupm-rsc.so.1:_ZN3upm3RSCC2Ehhh
libupm-rsc.so.1:_ZN3upm3RSCD1Ev
libupm-rsc.so.1:_ZN3upm3RSCD2Ev
libupm-scam.so.1:_ZN3upm4SCAM10drainInputEv
libupm-scam.so.1:_ZN3upm4SCAM10preCaptureENS0_13PIC_FORMATS_TE
libupm-scam.so.1:_ZN3upm4SCAM10storeImageEPKc
libupm-scam.so.1:_ZN3upm4SCAM13dataAvailableEj
libupm-scam.so.1:_ZN3upm4SCAM4initEv
libupm-scam.so.1:_ZN3upm4SCAM8readDataEPhi
libupm-scam.so.1:_ZN3upm4SCAM8setupTtyEj
libupm-scam.so.1:_ZN3upm4SCAM9doCaptureEv
libupm-scam.so.1:_ZN3upm4SCAM9writeDataEPhi
libupm-scam.so.1:_ZN3upm4SCAMC1Eih
libupm-scam.so.1:_ZN3upm4SCAMC2Eih
libupm-scam.so.1:_ZN3upm4SCAMD1Ev
libupm-scam.so.1:_ZN3upm4SCAMD2Ev
libupm-sensortemplate.so.1:_ZN3upm14SensorTemplate10helloWorldB5cxx11Ev
libupm-sensortemplate.so.1:_ZN3upm14SensorTemplateC1Ei
libupm-sensortemplate.so.1:_ZN3upm14SensorTemplateC2Ei
libupm-servo.so.1:_ZN3upm5ES08AC1Ei
libupm-servo.so.1:_ZN3upm5ES08AC2Ei
libupm-servo.so.1:_ZN3upm5ES08AD1Ev
libupm-servo.so.1:_ZN3upm5ES08AD2Ev
libupm-servo.so.1:_ZN3upm5Servo16getMaxPulseWidthEv
libupm-servo.so.1:_ZN3upm5Servo16getMinPulseWidthEv
libupm-servo.so.1:_ZN3upm5Servo16setMaxPulseWidthEi
libupm-servo.so.1:_ZN3upm5Servo16setMinPulseWidthEi
libupm-servo.so.1:_ZN3upm5Servo18calcPulseTravelingEi
libupm-servo.so.1:_ZN3upm5Servo4initEiiii
libupm-servo.so.1:_ZN3upm5Servo7haltPwmEv
libupm-servo.so.1:_ZN3upm5Servo8setAngleEi
libupm-servo.so.1:_ZN3upm5Servo9getPeriodEv
libupm-servo.so.1:_ZN3upm5Servo9setPeriodEi
libupm-servo.so.1:_ZN3upm5ServoC1Ei
libupm-servo.so.1:_ZN3upm5ServoC1Eiii
libupm-servo.so.1:_ZN3upm5ServoC1Eiiii
libupm-servo.so.1:_ZN3upm5ServoC2Ei
libupm-servo.so.1:_ZN3upm5ServoC2Eiii
libupm-servo.so.1:_ZN3upm5ServoC2Eiiii
libupm-servo.so.1:_ZN3upm5ServoD1Ev
libupm-servo.so.1:_ZN3upm5ServoD2Ev
libupm-servo.so.1:_ZN3upm6ES9257C1Ei
libupm-servo.so.1:_ZN3upm6ES9257C2Ei
libupm-servo.so.1:_ZN3upm6ES9257D1Ev
libupm-servo.so.1:_ZN3upm6ES9257D2Ev
libupm-sht1x.so.1:_ZN3upm5SHT1X10readStatusEv
libupm-sht1x.so.1:_ZN3upm5SHT1X10write8BitsEh
libupm-sht1x.so.1:_ZN3upm5SHT1X11getHumidityEv
libupm-sht1x.so.1:_ZN3upm5SHT1X11sendCommandE11SHT1X_CMD_T
libupm-sht1x.so.1:_ZN3upm5SHT1X11writeStatusEh
libupm-sht1x.so.1:_ZN3upm5SHT1X14getTemperatureEv
libupm-sht1x.so.1:_ZN3upm5SHT1X15waitForResponseEv
libupm-sht1x.so.1:_ZN3upm5SHT1X5resetEv
libupm-sht1x.so.1:_ZN3upm5SHT1X6updateEv
libupm-sht1x.so.1:_ZN3upm5SHT1X8setVoltsE13SHT1X_VOLTS_T
libupm-sht1x.so.1:_ZN3upm5SHT1X9read8BitsEv
libupm-sht1x.so.1:_ZN3upm5SHT1X9startXmitEv
libupm-sht1x.so.1:_ZN3upm5SHT1XC1Ejj
libupm-sht1x.so.1:_ZN3upm5SHT1XC2Ejj
libupm-sht1x.so.1:_ZN3upm5SHT1XD1Ev
libupm-sht1x.so.1:_ZN3upm5SHT1XD2Ev
libupm-si1132.so.1:_ZN3upm6SI113210runCommandEh
libupm-si1132.so.1:_ZN3upm6SI113210writeParamEhh
libupm-si1132.so.1:_ZN3upm6SI113213getVisibleLuxEv
libupm-si1132.so.1:_ZN3upm6SI113213getVisibleRawEv
libupm-si1132.so.1:_ZN3upm6SI113221clearResponseRegisterEv
libupm-si1132.so.1:_ZN3upm6SI11325resetEv
libupm-si1132.so.1:_ZN3upm6SI11327sleepMsEi
libupm-si1132.so.1:_ZN3upm6SI11329readParamEhPh
libupm-si1132.so.1:_ZN3upm6SI1132C1Ei
libupm-si1132.so.1:_ZN3upm6SI1132C2Ei
libupm-si1132.so.1:_ZN3upm6SI1132D0Ev
libupm-si1132.so.1:_ZN3upm6SI1132D1Ev
libupm-si1132.so.1:_ZN3upm6SI1132D2Ev
libupm-si1132.so.1:_ZTv0_n32_N3upm6SI1132D0Ev
libupm-si1132.so.1:_ZTv0_n32_N3upm6SI1132D1Ev
libupm-si114x.so.1:_ZN3upm6SI114X10initializeEv
libupm-si114x.so.1:_ZN3upm6SI114X10writeParamENS0_14SI114X_PARAM_TEh
libupm-si114x.so.1:_ZN3upm6SI114X16setUVCalibrationEhhhh
libupm-si114x.so.1:_ZN3upm6SI114X5resetEv
libupm-si114x.so.1:_ZN3upm6SI114X6updateEv
libupm-si114x.so.1:_ZN3upm6SI114X8readByteEh
libupm-si114x.so.1:_ZN3upm6SI114X8readWordEh
libupm-si114x.so.1:_ZN3upm6SI114X9readParamENS0_14SI114X_PARAM_TE
libupm-si114x.so.1:_ZN3upm6SI114X9writeByteEhh
libupm-si114x.so.1:_ZN3upm6SI114XC1Eih
libupm-si114x.so.1:_ZN3upm6SI114XC2Eih
libupm-si114x.so.1:_ZN3upm6SI114XD1Ev
libupm-si114x.so.1:_ZN3upm6SI114XD2Ev
libupm-si7005.so.1:_ZN3upm6SI700511isAvailableEv
libupm-si7005.so.1:_ZN3upm6SI700512enableHeaterEv
libupm-si7005.so.1:_ZN3upm6SI700513disableHeaterEv
libupm-si7005.so.1:_ZN3upm6SI700514getHumidityRawEv
libupm-si7005.so.1:_ZN3upm6SI700514getMeasurementEh
libupm-si7005.so.1:_ZN3upm6SI700517getTemperatureRawEv
libupm-si7005.so.1:_ZN3upm6SI700519getHumidityRelativeEv
libupm-si7005.so.1:_ZN3upm6SI700521getTemperatureCelsiusEv
libupm-si7005.so.1:_ZN3upm6SI700524enableFastConversionModeEv
libupm-si7005.so.1:_ZN3upm6SI700525disableFastConversionModeEv
libupm-si7005.so.1:_ZN3upm6SI7005C1Eii
libupm-si7005.so.1:_ZN3upm6SI7005C2Eii
libupm-si7005.so.1:_ZN3upm6SI7005D0Ev
libupm-si7005.so.1:_ZN3upm6SI7005D1Ev
libupm-si7005.so.1:_ZN3upm6SI7005D2Ev
libupm-si7005.so.1:_ZThn8_N3upm6SI700519getHumidityRelativeEv
libupm-si7005.so.1:_ZThn8_N3upm6SI7005D0Ev
libupm-si7005.so.1:_ZThn8_N3upm6SI7005D1Ev
libupm-si7005.so.1:_ZTv0_n32_N3upm6SI7005D0Ev
libupm-si7005.so.1:_ZTv0_n32_N3upm6SI7005D1Ev
libupm-slide.so.1:_ZN3upm5Slide11ref_voltageEv
libupm-slide.so.1:_ZN3upm5Slide13voltage_valueEv
libupm-slide.so.1:_ZN3upm5Slide9raw_valueEv
libupm-slide.so.1:_ZN3upm5SlideC1Ejf
libupm-slide.so.1:_ZN3upm5SlideC2Ejf
libupm-slide.so.1:_ZN3upm5SlideD1Ev
libupm-slide.so.1:_ZN3upm5SlideD2Ev
libupm-sm130.so.1:_ZN3upm5SM13010tag2StringB5cxx11ENS0_10TAG_TYPE_TE
libupm-sm130.so.1:_ZN3upm5SM13010waitForTagEj
libupm-sm130.so.1:_ZN3upm5SM13010writePortsEh
libupm-sm130.so.1:_ZN3upm5SM13011readBlock16B5cxx11Eh
libupm-sm130.so.1:_ZN3upm5SM13011sendCommandENS0_5CMD_TENSt7__cxx1112basic_stringIcSt11char_traitsIcESaIcEEE
libupm-sm130.so.1:_ZN3upm5SM13011setBaudRateEi
libupm-sm130.so.1:_ZN3upm5SM13011writeBlock4EhNSt7__cxx1112basic_stringIcSt11char_traitsIcESaIcEEE
libupm-sm130.so.1:_ZN3upm5SM13012authenticateEhNS0_11KEY_TYPES_TENSt7__cxx1112basic_stringIcSt11char_traitsIcESaIcEEE
libupm-sm130.so.1:_ZN3upm5SM13012writeBlock16EhNSt7__cxx1112basic_stringIcSt11char_traitsIcESaIcEEE
libupm-sm130.so.1:_ZN3upm5SM13013hardwareResetEv
libupm-sm130.so.1:_ZN3upm5SM13014readValueBlockEh
libupm-sm130.so.1:_ZN3upm5SM13015setAntennaPowerEb
libupm-sm130.so.1:_ZN3upm5SM13015writeValueBlockEhi
libupm-sm130.so.1:_ZN3upm5SM13016adjustValueBlockEhib
libupm-sm130.so.1:_ZN3upm5SM13016setSM130BaudRateEi
libupm-sm130.so.1:_ZN3upm5SM13016string2HexStringENSt7__cxx1112basic_stringIcSt11char_traitsIcESaIcEEE
libupm-sm130.so.1:_ZN3upm5SM13018getFirmwareVersionB5cxx11Ev
libupm-sm130.so.1:_ZN3upm5SM1305resetEv
libupm-sm130.so.1:_ZN3upm5SM1305sleepEv
libupm-sm130.so.1:_ZN3upm5SM1306selectEv
libupm-sm130.so.1:_ZN3upm5SM1307haltTagEv
libupm-sm130.so.1:_ZN3upm5SM1308writeKeyEhNS0_11KEY_TYPES_TENSt7__cxx1112basic_stringIcSt11char_traitsIcESaIcEEE
libupm-sm130.so.1:_ZN3upm5SM1309getMillisEv
libupm-sm130.so.1:_ZN3upm5SM1309initClockEv
libupm-sm130.so.1:_ZN3upm5SM1309readPortsEv
libupm-sm130.so.1:_ZN3upm5SM130C1Eii
libupm-sm130.so.1:_ZN3upm5SM130C2Eii
libupm-sm130.so.1:_ZN3upm5SM130D1Ev
libupm-sm130.so.1:_ZN3upm5SM130D2Ev
libupm-smartdrive.so.1:_ZN3upm10SmartDrive10IsTimeDoneEi
libupm-smartdrive.so.1:_ZN3upm10SmartDrive10writeArrayEPhh
libupm-smartdrive.so.1:_ZN3upm10SmartDrive11IsTachoDoneEi
libupm-smartdrive.so.1:_ZN3upm10SmartDrive11Run_DegreesEiihjbi
libupm-smartdrive.so.1:_ZN3upm10SmartDrive11Run_SecondsEiihhbi
libupm-smartdrive.so.1:_ZN3upm10SmartDrive11readIntegerEh
libupm-smartdrive.so.1:_ZN3upm10SmartDrive13Run_RotationsEiihjbi
libupm-smartdrive.so.1:_ZN3upm10SmartDrive13Run_UnlimitedEiih
libupm-smartdrive.so.1:_ZN3upm10SmartDrive14GetBattVoltageEv
libupm-smartdrive.so.1:_ZN3upm10SmartDrive14GetMotorStatusEi
libupm-smartdrive.so.1:_ZN3upm10SmartDrive14readLongSignedEh
libupm-smartdrive.so.1:_ZN3upm10SmartDrive16PrintMotorStatusEi
libupm-smartdrive.so.1:_ZN3upm10SmartDrive17WaitUntilTimeDoneEi
libupm-smartdrive.so.1:_ZN3upm10SmartDrive18WaitUntilTachoDoneEi
libupm-smartdrive.so.1:_ZN3upm10SmartDrive22ReadTachometerPositionEi
libupm-smartdrive.so.1:_ZN3upm10SmartDrive24SetPerformanceParametersEtttttthh
libupm-smartdrive.so.1:_ZN3upm10SmartDrive25ReadPerformanceParametersEv
libupm-smartdrive.so.1:_ZN3upm10SmartDrive7commandEh
libupm-smartdrive.so.1:_ZN3upm10SmartDrive8readByteEh
libupm-smartdrive.so.1:_ZN3upm10SmartDrive9Run_TachoEihjbi
libupm-smartdrive.so.1:_ZN3upm10SmartDrive9StopMotorEii
libupm-smartdrive.so.1:_ZN3upm10SmartDrive9writeByteEhh
libupm-smartdrive.so.1:_ZN3upm10SmartDriveC1Eii
libupm-smartdrive.so.1:_ZN3upm10SmartDriveC2Eii
libupm-speaker.so.1:_ZN3upm7Speaker12setFrequencyEj
libupm-speaker.so.1:_ZN3upm7Speaker2onEv
libupm-speaker.so.1:_ZN3upm7Speaker3offEv
libupm-speaker.so.1:_ZN3upm7Speaker4emitEjj
libupm-speaker.so.1:_ZN3upm7Speaker7playAllEv
libupm-speaker.so.1:_ZN3upm7Speaker9playSoundEcbNSt7__cxx1112basic_stringIcSt11char_traitsIcESaIcEEE
libupm-speaker.so.1:_ZN3upm7SpeakerC1Eib
libupm-speaker.so.1:_ZN3upm7SpeakerC2Eib
libupm-speaker.so.1:_ZN3upm7SpeakerD0Ev
libupm-speaker.so.1:_ZN3upm7SpeakerD1Ev
libupm-speaker.so.1:_ZN3upm7SpeakerD2Ev
libupm-ssd1351.so.1:_ZN3upm3GFX10drawCircleEssst
libupm-ssd1351.so.1:_ZN3upm3GFX10fillScreenEt
libupm-ssd1351.so.1:_ZN3upm3GFX11setTextSizeEh
libupm-ssd1351.so.1:_ZN3upm3GFX11setTextWrapEh
libupm-ssd1351.so.1:_ZN3upm3GFX12drawTriangleEsssssst
libupm-ssd1351.so.1:_ZN3upm3GFX12setTextColorEtt
libupm-ssd1351.so.1:_ZN3upm3GFX13drawFastVLineEssst
libupm-ssd1351.so.1:_ZN3upm3GFX5printENSt7__cxx1112basic_stringIcSt11char_traitsIcESaIcEEE
libupm-ssd1351.so.1:_ZN3upm3GFX8drawCharEsshtth
libupm-ssd1351.so.1:_ZN3upm3GFX8drawLineEsssst
libupm-ssd1351.so.1:_ZN3upm3GFX8fillRectEsssst
libupm-ssd1351.so.1:_ZN3upm3GFX9setCursorEss
libupm-ssd1351.so.1:_ZN3upm3GFXC1Eii
libupm-ssd1351.so.1:_ZN3upm3GFXC2Eii
libupm-ssd1351.so.1:_ZN3upm3GFXD0Ev
libupm-ssd1351.so.1:_ZN3upm3GFXD1Ev
libupm-ssd1351.so.1:_ZN3upm3GFXD2Ev
libupm-ssd1351.so.1:_ZN3upm7SSD135112useMemoryMapEb
libupm-ssd1351.so.1:_ZN3upm7SSD135112writeCommandEh
libupm-ssd1351.so.1:_ZN3upm7SSD13515dcLowEv
libupm-ssd1351.so.1:_ZN3upm7SSD13515ocLowEv
libupm-ssd1351.so.1:_ZN3upm7SSD13516dcHighEv
libupm-ssd1351.so.1:_ZN3upm7SSD13516ocHighEv
libupm-ssd1351.so.1:_ZN3upm7SSD13517refreshEv
libupm-ssd1351.so.1:_ZN3upm7SSD13519drawPixelEsst
libupm-ssd1351.so.1:_ZN3upm7SSD13519writeDataEh
libupm-ssd1351.so.1:_ZN3upm7SSD1351C1Eiii
libupm-ssd1351.so.1:_ZN3upm7SSD1351C2Eiii
libupm-ssd1351.so.1:_ZN3upm7SSD1351D0Ev
libupm-ssd1351.so.1:_ZN3upm7SSD1351D1Ev
libupm-ssd1351.so.1:_ZN3upm7SSD1351D2Ev
libupm-st7735.so.1:_ZN3upm3GFX10drawCircleEssst
libupm-st7735.so.1:_ZN3upm3GFX10fillScreenEt
libupm-st7735.so.1:_ZN3upm3GFX11setTextSizeEh
libupm-st7735.so.1:_ZN3upm3GFX11setTextWrapEh
libupm-st7735.so.1:_ZN3upm3GFX12drawTriangleEsssssst
libupm-st7735.so.1:_ZN3upm3GFX12setTextColorEtt
libupm-st7735.so.1:_ZN3upm3GFX13drawFastVLineEssst
libupm-st7735.so.1:_ZN3upm3GFX5printENSt7__cxx1112basic_stringIcSt11char_traitsIcESaIcEEE
libupm-st7735.so.1:_ZN3upm3GFX8drawCharEsshtth
libupm-st7735.so.1:_ZN3upm3GFX8drawLineEsssst
libupm-st7735.so.1:_ZN3upm3GFX8fillRectEsssst
libupm-st7735.so.1:_ZN3upm3GFX8setPixelEiit
libupm-st7735.so.1:_ZN3upm3GFX9setCursorEss
libupm-st7735.so.1:_ZN3upm3GFXC1EiiPhPKh
libupm-st7735.so.1:_ZN3upm3GFXC2EiiPhPKh
libupm-st7735.so.1:_ZN3upm3GFXD0Ev
libupm-st7735.so.1:_ZN3upm3GFXD1Ev
libupm-st7735.so.1:_ZN3upm3GFXD2Ev
libupm-st7735.so.1:_ZN3upm6ST773510initModuleEv
libupm-st7735.so.1:_ZN3upm6ST773512configModuleEv
libupm-st7735.so.1:_ZN3upm6ST773513setAddrWindowEhhhh
libupm-st7735.so.1:_ZN3upm6ST773514executeCMDListEPKh
libupm-st7735.so.1:_ZN3upm6ST77354dataEh
libupm-st7735.so.1:_ZN3upm6ST77355rsLOWEv
libupm-st7735.so.1:_ZN3upm6ST77355writeEh
libupm-st7735.so.1:_ZN3upm6ST77356rsHIGHEv
libupm-st7735.so.1:_ZN3upm6ST77356sdCSOnEv
libupm-st7735.so.1:_ZN3upm6ST77357lcdCSOnEv
libupm-st7735.so.1:_ZN3upm6ST77357refreshEv
libupm-st7735.so.1:_ZN3upm6ST77357sdCSOffEv
libupm-st7735.so.1:_ZN3upm6ST77358lcdCSOffEv
libupm-st7735.so.1:_ZN3upm6ST77359drawPixelEsst
libupm-st7735.so.1:_ZN3upm6ST7735C1Eiiii
libupm-st7735.so.1:_ZN3upm6ST7735C2Eiiii
libupm-stepmotor.so.1:_ZN3upm9StepMotor10dirForwardEv
libupm-stepmotor.so.1:_ZN3upm9StepMotor11dirBackwardEv
libupm-stepmotor.so.1:_ZN3upm9StepMotor11getPositionEv
libupm-stepmotor.so.1:_ZN3upm9StepMotor11setPositionEi
libupm-stepmotor.so.1:_ZN3upm9StepMotor11stepForwardEi
libupm-stepmotor.so.1:_ZN3upm9StepMotor12stepBackwardEi
libupm-stepmotor.so.1:_ZN3upm9StepMotor4moveEv
libupm-stepmotor.so.1:_ZN3upm9StepMotor4stepEi
libupm-stepmotor.so.1:_ZN3upm9StepMotor6enableEb
libupm-stepmotor.so.1:_ZN3upm9StepMotor7delayusEi
libupm-stepmotor.so.1:_ZN3upm9StepMotor7getStepEv
libupm-stepmotor.so.1:_ZN3upm9StepMotor8setSpeedEi
libupm-stepmotor.so.1:_ZN3upm9StepMotorC1Eiiii
libupm-stepmotor.so.1:_ZN3upm9StepMotorC2Eiiii
libupm-stepmotor.so.1:_ZN3upm9StepMotorD1Ev
libupm-stepmotor.so.1:_ZN3upm9StepMotorD2Ev
libupm-sx1276.so.1:_ZN3upm6SX127610setChannelEj
libupm-sx1276.so.1:_ZN3upm6SX127610setStandbyEv
libupm-sx1276.so.1:_ZN3upm6SX127611setRxConfigENS0_13RADIO_MODEM_TEjjhjttbhbbhbb
libupm-sx1276.so.1:_ZN3upm6SX127611setTxConfigENS0_13RADIO_MODEM_TEajjjhtbbbhb
libupm-sx1276.so.1:_ZN3upm6SX127613isChannelFreeENS0_13RADIO_MODEM_TEjs
libupm-sx1276.so.1:_ZN3upm6SX127614getChipVersionEv
libupm-sx1276.so.1:_ZN3upm6SX127618lookupFSKBandWidthEj
libupm-sx1276.so.1:_ZN3upm6SX127618rxChainCalibrationEv
libupm-sx1276.so.1:_ZN3upm6SX127619setMaxPayloadLengthENS0_13RADIO_MODEM_TEh
libupm-sx1276.so.1:_ZN3upm6SX12764initEv
libupm-sx1276.so.1:_ZN3upm6SX12764sendEPhhi
libupm-sx1276.so.1:_ZN3upm6SX12765resetEv
libupm-sx1276.so.1:_ZN3upm6SX12765setRxEj
libupm-sx1276.so.1:_ZN3upm6SX12765setTxEi
libupm-sx1276.so.1:_ZN3upm6SX12767getRSSIENS0_13RADIO_MODEM_TE
libupm-sx1276.so.1:_ZN3upm6SX12767readRegEh
libupm-sx1276.so.1:_ZN3upm6SX12767sendStrENSt7__cxx1112basic_stringIcSt11char_traitsIcESaIcEEEi
libupm-sx1276.so.1:_ZN3upm6SX12768readFifoEPhi
libupm-sx1276.so.1:_ZN3upm6SX12768setModemENS0_13RADIO_MODEM_TE
libupm-sx1276.so.1:_ZN3upm6SX12768setSleepEv
libupm-sx1276.so.1:_ZN3upm6SX12768startCADEv
libupm-sx1276.so.1:_ZN3upm6SX12768writeRegEhh
libupm-sx1276.so.1:_ZN3upm6SX12769getMillisEv
libupm-sx1276.so.1:_ZN3upm6SX12769initClockEv
libupm-sx1276.so.1:_ZN3upm6SX12769onDio0IrqEPv
libupm-sx1276.so.1:_ZN3upm6SX12769onDio1IrqEPv
libupm-sx1276.so.1:_ZN3upm6SX12769onDio2IrqEPv
libupm-sx1276.so.1:_ZN3upm6SX12769onDio3IrqEPv
libupm-sx1276.so.1:_ZN3upm6SX12769onDio4IrqEPv
libupm-sx1276.so.1:_ZN3upm6SX12769onDio5IrqEPv
libupm-sx1276.so.1:_ZN3upm6SX12769setOpModeENS0_6MODE_TE
libupm-sx1276.so.1:_ZN3upm6SX12769writeFifoEPhi
libupm-sx1276.so.1:_ZN3upm6SX1276C1Ehiiiiiiiii
libupm-sx1276.so.1:_ZN3upm6SX1276C2Ehiiiiiiiii
libupm-sx1276.so.1:_ZN3upm6SX1276D1Ev
libupm-sx1276.so.1:_ZN3upm6SX1276D2Ev
libupm-sx6119.so.1:_ZN3upm6SX611911togglePowerEv
libupm-sx6119.so.1:_ZN3upm6SX61194seekEv
libupm-sx6119.so.1:_ZN3upm6SX6119C1Eii
libupm-sx6119.so.1:_ZN3upm6SX6119C2Eii
libupm-sx6119.so.1:_ZN3upm6SX6119D1Ev
libupm-sx6119.so.1:_ZN3upm6SX6119D2Ev
libupm-t6713.so.1:_ZN3upm5T671310runCommandENS_9t6713_co215MODBUS_COMMANDSE
libupm-t6713.so.1:_ZN3upm5T671313getSensorDataENS_9t6713_co215MODBUS_COMMANDSE
libupm-t6713.so.1:_ZN3upm5T671319getFirmwareRevisionEv
libupm-t6713.so.1:_ZN3upm5T67136getPpmEv
libupm-t6713.so.1:_ZN3upm5T67139getStatusEv
libupm-t6713.so.1:_ZN3upm5T6713C1Ei
libupm-t6713.so.1:_ZN3upm5T6713C2Ei
libupm-ta12200.so.1:_ZN3upm7TA1220012highestValueEv
libupm-ta12200.so.1:_ZN3upm7TA122009getMillisEv
libupm-ta12200.so.1:_ZN3upm7TA122009initClockEv
libupm-ta12200.so.1:_ZN3upm7TA122009milliAmpsEji
libupm-ta12200.so.1:_ZN3upm7TA12200C1Ei
libupm-ta12200.so.1:_ZN3upm7TA12200C2Ei
libupm-ta12200.so.1:_ZN3upm7TA12200D1Ev
libupm-ta12200.so.1:_ZN3upm7TA12200D2Ev
libupm-tca9548a.so.1:_ZN3upm8TCA9548A13getPortConfigEv
libupm-tca9548a.so.1:_ZN3upm8TCA9548A13setPortConfigEh
libupm-tca9548a.so.1:_ZN3upm8TCA9548A14enableAllPortsEv
libupm-tca9548a.so.1:_ZN3upm8TCA9548A15disableAllPortsEv
libupm-tca9548a.so.1:_ZN3upm8TCA9548A7getPortEi
libupm-tca9548a.so.1:_ZN3upm8TCA9548A7setPortEiNS0_19TCA9548A_PORT_STATEENS0_18TCA9548A_PORT_MODEE
libupm-tca9548a.so.1:_ZN3upm8TCA9548A9validPortEi
libupm-tca9548a.so.1:_ZN3upm8TCA9548AC1Eih
libupm-tca9548a.so.1:_ZN3upm8TCA9548AC2Eih
libupm-tca9548a.so.1:_ZN3upm8TCA9548AD1Ev
libupm-tca9548a.so.1:_ZN3upm8TCA9548AD2Ev
libupm-tcs3414cs.so.1:_ZN3upm9TCS3414CS11i2cWriteRegEhh
libupm-tcs3414cs.so.1:_ZN3upm9TCS3414CS12i2cReadReg_NEijPh
libupm-tcs3414cs.so.1:_ZN3upm9TCS3414CS13i2cWriteReg_NEhjPh
libupm-tcs3414cs.so.1:_ZN3upm9TCS3414CS14clearInterruptEv
libupm-tcs3414cs.so.1:_ZN3upm9TCS3414CS7readRGBEPNS_15tcs3414sc_rgb_tE
libupm-tcs3414cs.so.1:_ZN3upm9TCS3414CSC1Eii
libupm-tcs3414cs.so.1:_ZN3upm9TCS3414CSC2Eii
libupm-tcs37727.so.1:_ZN3upm8TCS3772710sampleDataEv
libupm-tcs37727.so.1:_ZN3upm8TCS3772710setStandbyEv
libupm-tcs37727.so.1:_ZN3upm8TCS3772713getChannelRedEi
libupm-tcs37727.so.1:_ZN3upm8TCS3772714getChannelBlueEi
libupm-tcs37727.so.1:_ZN3upm8TCS3772715getChannelClearEi
libupm-tcs37727.so.1:_ZN3upm8TCS3772715getChannelGreenEi
libupm-tcs37727.so.1:_ZN3upm8TCS3772719getColorTemperatureEi
libupm-tcs37727.so.1:_ZN3upm8TCS377276getLuxEi
libupm-tcs37727.so.1:_ZN3upm8TCS377277checkIDEv
libupm-tcs37727.so.1:_ZN3upm8TCS377277getDataEPNS_15tcs37727_data_tEi
libupm-tcs37727.so.1:_ZN3upm8TCS377278trimGainEi
libupm-tcs37727.so.1:_ZN3upm8TCS377279setActiveEv
libupm-tcs37727.so.1:_ZN3upm8TCS37727C1Eiii
libupm-tcs37727.so.1:_ZN3upm8TCS37727C2Eiii
libupm-teams.so.1:_ZN3upm5TEAMS14getTemperatureEb
libupm-teams.so.1:_ZN3upm5TEAMS6updateEv
libupm-teams.so.1:_ZN3upm5TEAMS7averageEi
libupm-teams.so.1:_ZN3upm5TEAMSC1Eiff
libupm-teams.so.1:_ZN3upm5TEAMSC2Eiff
libupm-teams.so.1:_ZN3upm5TEAMSD1Ev
libupm-teams.so.1:_ZN3upm5TEAMSD2Ev
libupm-temperature.so.1:_ZN3upm11Temperature5valueEv
libupm-temperature.so.1:_ZN3upm11Temperature9raw_valueEv
libupm-temperature.so.1:_ZN3upm11TemperatureC1Ejfii
libupm-temperature.so.1:_ZN3upm11TemperatureC2Ejfii
libupm-temperature.so.1:_ZN3upm11TemperatureD1Ev
libupm-temperature.so.1:_ZN3upm11TemperatureD2Ev
libupm-tex00.so.1:_ZN3upm5TEX0010thermistorEf
libupm-tex00.so.1:_ZN3upm5TEX0014getTemperatureEb
libupm-tex00.so.1:_ZN3upm5TEX0017initThermistorTEBEv
libupm-tex00.so.1:_ZN3upm5TEX0017initThermistorTECEv
libupm-tex00.so.1:_ZN3upm5TEX0017initThermistorTEDEv
libupm-tex00.so.1:_ZN3upm5TEX0017initThermistorTEEEv
libupm-tex00.so.1:_ZN3upm5TEX0017initThermistorTEFEv
libupm-tex00.so.1:_ZN3upm5TEX0017initThermistorTEHEv
libupm-tex00.so.1:_ZN3upm5TEX0017initThermistorTEIEv
libupm-tex00.so.1:_ZN3upm5TEX0017initThermistorTEJEv
libupm-tex00.so.1:_ZN3upm5TEX0017initThermistorTEMEv
libupm-tex00.so.1:_ZN3upm5TEX0017initThermistorTEREv
libupm-tex00.so.1:_ZN3upm5TEX0017initThermistorTESEv
libupm-tex00.so.1:_ZN3upm5TEX0017initThermistorTETEv
libupm-tex00.so.1:_ZN3upm5TEX0017initThermistorTEUEv
libupm-tex00.so.1:_ZN3upm5TEX0022getTemperatureRangeMaxEv
libupm-tex00.so.1:_ZN3upm5TEX0022getTemperatureRangeMinEv
libupm-tex00.so.1:_ZN3upm5TEX006updateEv
libupm-tex00.so.1:_ZN3upm5TEX007averageEi
libupm-tex00.so.1:_ZN3upm5TEX00C1EifNS0_14SENSOR_TYPES_TEf
libupm-tex00.so.1:_ZN3upm5TEX00C2EifNS0_14SENSOR_TYPES_TEf
libupm-tex00.so.1:_ZN3upm5TEX00D1Ev
libupm-tex00.so.1:_ZN3upm5TEX00D2Ev
libupm-th02.so.1:_ZN3upm4TH0211getHumidityEv
libupm-th02.so.1:_ZN3upm4TH0214getTemperatureEv
libupm-th02.so.1:_ZN3upm4TH029getStatusEv
libupm-th02.so.1:_ZN3upm4TH02C1Eih
libupm-th02.so.1:_ZN3upm4TH02C2Eih
libupm-th02.so.1:_ZN3upm4TH02D1Ev
libupm-th02.so.1:_ZN3upm4TH02D2Ev
libupm-tm1637.so.1:_ZN3upm6TM163713i2c_writeByteEh
libupm-tm1637.so.1:_ZN3upm6TM163713setBrightnessEi
libupm-tm1637.so.1:_ZN3upm6TM16375writeENSt7__cxx1112basic_stringIcSt11char_traitsIcESaIcEEE
libupm-tm1637.so.1:_ZN3upm6TM16375writeEPh
libupm-tm1637.so.1:_ZN3upm6TM16375writeEiz
libupm-tm1637.so.1:_ZN3upm6TM16376encodeEc
libupm-tm1637.so.1:_ZN3upm6TM16376updateEv
libupm-tm1637.so.1:_ZN3upm6TM16377writeAtEic
libupm-tm1637.so.1:_ZN3upm6TM16378i2c_stopEv
libupm-tm1637.so.1:_ZN3upm6TM16378setColonEb
libupm-tm1637.so.1:_ZN3upm6TM16379i2c_startEv
libupm-tm1637.so.1:_ZN3upm6TM1637C1Eiii
libupm-tm1637.so.1:_ZN3upm6TM1637C2Eiii
libupm-tm1637.so.1:_ZN3upm6TM1637D1Ev
libupm-tm1637.so.1:_ZN3upm6TM1637D2Ev
libupm-tmp006.so.1:_ZN3upm6TMP00610sampleDataEv
libupm-tmp006.so.1:_ZN3upm6TMP00610setStandbyEv
libupm-tmp006.so.1:_ZN3upm6TMP00611resetSensorEv
libupm-tmp006.so.1:_ZN3upm6TMP00612convert_dataEssPfS1_
libupm-tmp006.so.1:_ZN3upm6TMP00614getTemperatureEi
libupm-tmp006.so.1:_ZN3upm6TMP0067checkIDEv
libupm-tmp006.so.1:_ZN3upm6TMP0069getConfigEv
libupm-tmp006.so.1:_ZN3upm6TMP0069setActiveEv
libupm-tmp006.so.1:_ZN3upm6TMP006C1Eihi
libupm-tmp006.so.1:_ZN3upm6TMP006C2Eihi
libupm-tsl2561.so.1:_ZN3upm7TSL256110i2cReadRegEhRh
libupm-tsl2561.so.1:_ZN3upm7TSL256111i2cWriteRegEhh
libupm-tsl2561.so.1:_ZN3upm7TSL25616getLuxEv
libupm-tsl2561.so.1:_ZN3upm7TSL2561C1Eihhh
libupm-tsl2561.so.1:_ZN3upm7TSL2561C2Eihhh
libupm-tsl2561.so.1:_ZN3upm7TSL2561D1Ev
libupm-tsl2561.so.1:_ZN3upm7TSL2561D2Ev
libupm-ttp223.so.1:_ZN3upm6TTP22310installISREN4mraa4EdgeEPFvPvES3_
libupm-ttp223.so.1:_ZN3upm6TTP22312uninstallISREv
libupm-ttp223.so.1:_ZN3upm6TTP2234nameB5cxx11Ev
libupm-ttp223.so.1:_ZN3upm6TTP2235valueEv
libupm-ttp223.so.1:_ZN3upm6TTP2239isPressedEv
libupm-ttp223.so.1:_ZN3upm6TTP223C1Ej
libupm-ttp223.so.1:_ZN3upm6TTP223C2Ej
libupm-ttp223.so.1:_ZN3upm6TTP223D1Ev
libupm-ttp223.so.1:_ZN3upm6TTP223D2Ev
libupm-uartat.so.1:_ZN3upm6UARTAT11commandModeENSt7__cxx1112basic_stringIcSt11char_traitsIcESaIcEEEj
libupm-uartat.so.1:_ZN3upm6UARTAT11setBaudrateEj
libupm-uartat.so.1:_ZN3upm6UARTAT11stringCR2LFENSt7__cxx1112basic_stringIcSt11char_traitsIcESaIcEEE
libupm-uartat.so.1:_ZN3upm6UARTAT13dataAvailableEj
libupm-uartat.so.1:_ZN3upm6UARTAT13inCommandModeEv
libupm-uartat.so.1:_ZN3upm6UARTAT14commandWaitForENSt7__cxx1112basic_stringIcSt11char_traitsIcESaIcEEEmS6_j
libupm-uartat.so.1:_ZN3upm6UARTAT14setFlowControlE21UARTAT_FLOW_CONTROL_T
libupm-uartat.so.1:_ZN3upm6UARTAT19commandWithResponseENSt7__cxx1112basic_stringIcSt11char_traitsIcESaIcEEEm
libupm-uartat.so.1:_ZN3upm6UARTAT19setResponseWaitTimeEj
libupm-uartat.so.1:_ZN3upm6UARTAT4findENSt7__cxx1112basic_stringIcSt11char_traitsIcESaIcEEES6_
libupm-uartat.so.1:_ZN3upm6UARTAT5drainEv
libupm-uartat.so.1:_ZN3upm6UARTAT7commandENSt7__cxx1112basic_stringIcSt11char_traitsIcESaIcEEE
libupm-uartat.so.1:_ZN3upm6UARTAT7readStrB5cxx11Em
libupm-uartat.so.1:_ZN3upm6UARTAT8filterCREb
libupm-uartat.so.1:_ZN3upm6UARTAT8writeStrENSt7__cxx1112basic_stringIcSt11char_traitsIcESaIcEEE
libupm-uartat.so.1:_ZN3upm6UARTATC1ENSt7__cxx1112basic_stringIcSt11char_traitsIcESaIcEEEj
libupm-uartat.so.1:_ZN3upm6UARTATC1Ejj
libupm-uartat.so.1:_ZN3upm6UARTATC2ENSt7__cxx1112basic_stringIcSt11char_traitsIcESaIcEEEj
libupm-uartat.so.1:_ZN3upm6UARTATC2Ejj
libupm-uartat.so.1:_ZN3upm6UARTATD1Ev
libupm-uartat.so.1:_ZN3upm6UARTATD2Ev
libupm-uln200xa.so.1:_ZN3upm8ULN200XA12setDirectionE20ULN200XA_DIRECTION_T
libupm-uln200xa.so.1:_ZN3upm8ULN200XA12stepperStepsEj
libupm-uln200xa.so.1:_ZN3upm8ULN200XA7releaseEv
libupm-uln200xa.so.1:_ZN3upm8ULN200XA8setSpeedEj
libupm-uln200xa.so.1:_ZN3upm8ULN200XAC1Eijjjj
libupm-uln200xa.so.1:_ZN3upm8ULN200XAC2Eijjjj
libupm-uln200xa.so.1:_ZN3upm8ULN200XAD1Ev
libupm-uln200xa.so.1:_ZN3upm8ULN200XAD2Ev
libupm-ultrasonic.so.1:_ZN3upm10UltraSonic11getDistanceEv
libupm-ultrasonic.so.1:_ZN3upm10UltraSonic15ackEdgeDetectedEv
libupm-ultrasonic.so.1:_ZN3upm10UltraSonic9signalISREPv
libupm-ultrasonic.so.1:_ZN3upm10UltraSonicC1Ei
libupm-ultrasonic.so.1:_ZN3upm10UltraSonicC2Ei
libupm-ultrasonic.so.1:_ZN3upm10UltraSonicD1Ev
libupm-ultrasonic.so.1:_ZN3upm10UltraSonicD2Ev
libupm-urm37.so.1:_ZN3upm5URM3710readEEPROMEh
libupm-urm37.so.1:_ZN3upm5URM3711getDistanceEi
libupm-urm37.so.1:_ZN3upm5URM3711writeEEPROMEhh
libupm-urm37.so.1:_ZN3upm5URM3714getTemperatureEv
libupm-urm37.so.1:_ZN3upm5URM375resetEv
libupm-urm37.so.1:_ZN3upm5URM37C1Eii
libupm-urm37.so.1:_ZN3upm5URM37C1Eiiif
libupm-urm37.so.1:_ZN3upm5URM37C2Eii
libupm-urm37.so.1:_ZN3upm5URM37C2Eiiif
libupm-urm37.so.1:_ZN3upm5URM37D1Ev
libupm-urm37.so.1:_ZN3upm5URM37D2Ev
libupm-vcap.so.1:_ZN3upm4VCAP11allocBufferEv
libupm-vcap.so.1:_ZN3upm4VCAP12captureImageEv
libupm-vcap.so.1:_ZN3upm4VCAP13releaseBufferEv
libupm-vcap.so.1:_ZN3upm4VCAP13setJPGQualityEj
libupm-vcap.so.1:_ZN3upm4VCAP13setResolutionEii
libupm-vcap.so.1:_ZN3upm4VCAP14doCaptureImageEv
libupm-vcap.so.1:_ZN3upm4VCAP15initVideoDeviceEv
libupm-vcap.so.1:_ZN3upm4VCAP17checkCapabilitiesEv
libupm-vcap.so.1:_ZN3upm4VCAP6xioctlEiiPv
libupm-vcap.so.1:_ZN3upm4VCAP9YUYV2JPEGEP8_IO_FILE
libupm-vcap.so.1:_ZN3upm4VCAP9saveImageENSt7__cxx1112basic_stringIcSt11char_traitsIcESaIcEEE
libupm-vcap.so.1:_ZN3upm4VCAPC1ENSt7__cxx1112basic_stringIcSt11char_traitsIcESaIcEEE
libupm-vcap.so.1:_ZN3upm4VCAPC2ENSt7__cxx1112basic_stringIcSt11char_traitsIcESaIcEEE
libupm-vcap.so.1:_ZN3upm4VCAPD1Ev
libupm-vcap.so.1:_ZN3upm4VCAPD2Ev
libupm-vdiv.so.1:_ZN3upm4VDiv13computedValueEhjii
libupm-vdiv.so.1:_ZN3upm4VDiv5valueEj
libupm-vdiv.so.1:_ZN3upm4VDivC1Ei
libupm-vdiv.so.1:_ZN3upm4VDivC2Ei
libupm-vdiv.so.1:_ZN3upm4VDivD1Ev
libupm-vdiv.so.1:_ZN3upm4VDivD2Ev
libupm-veml6070.so.1:_ZN3upm8VEML607014getUVIntensityEv
libupm-veml6070.so.1:_ZN3upm8VEML607018setIntegrationTimeE27veml6070_integration_time_t
libupm-veml6070.so.1:_ZN3upm8VEML6070C1Ei
libupm-veml6070.so.1:_ZN3upm8VEML6070C2Ei
libupm-veml6070.so.1:_ZN3upm8VEML6070D1Ev
libupm-veml6070.so.1:_ZN3upm8VEML6070D2Ev
libupm-water.so.1:_ZN3upm5Water5isWetEv
libupm-water.so.1:_ZN3upm5WaterC1Ej
libupm-water.so.1:_ZN3upm5WaterC2Ej
libupm-water.so.1:_ZN3upm5WaterD1Ev
libupm-water.so.1:_ZN3upm5WaterD2Ev
libupm-waterlevel.so.1:_ZN3upm10WaterLevel11isSubmergedEv
libupm-waterlevel.so.1:_ZN3upm10WaterLevelC1Ei
libupm-waterlevel.so.1:_ZN3upm10WaterLevelC2Ei
libupm-waterlevel.so.1:_ZN3upm10WaterLevelD1Ev
libupm-waterlevel.so.1:_ZN3upm10WaterLevelD2Ev
libupm-wfs.so.1:_ZN3upm3WFS15stopFlowCounterEv
libupm-wfs.so.1:_ZN3upm3WFS16startFlowCounterEv
libupm-wfs.so.1:_ZN3upm3WFS8flowRateEv
libupm-wfs.so.1:_ZN3upm3WFS9getMillisEv
libupm-wfs.so.1:_ZN3upm3WFS9initClockEv
libupm-wfs.so.1:_ZN3upm3WFSC1Ei
libupm-wfs.so.1:_ZN3upm3WFSC2Ei
libupm-wfs.so.1:_ZN3upm3WFSD1Ev
libupm-wfs.so.1:_ZN3upm3WFSD2Ev
libupm-wheelencoder.so.1:_ZN3upm12WheelEncoder11stopCounterEv
libupm-wheelencoder.so.1:_ZN3upm12WheelEncoder12startCounterEv
libupm-wheelencoder.so.1:_ZN3upm12WheelEncoder8wheelISREPv
libupm-wheelencoder.so.1:_ZN3upm12WheelEncoder9getMillisEv
libupm-wheelencoder.so.1:_ZN3upm12WheelEncoder9initClockEv
libupm-wheelencoder.so.1:_ZN3upm12WheelEncoderC1Ei
libupm-wheelencoder.so.1:_ZN3upm12WheelEncoderC2Ei
libupm-wheelencoder.so.1:_ZN3upm12WheelEncoderD1Ev
libupm-wheelencoder.so.1:_ZN3upm12WheelEncoderD2Ev
libupm-wt5001.so.1:_ZN3upm6WT500110clearAlarmEv
libupm-wt5001.so.1:_ZN3upm6WT500111getNumFilesENS0_19WT5001_PLAYSOURCE_TE
libupm-wt5001.so.1:_ZN3upm6WT500111getNumFilesENS0_19WT5001_PLAYSOURCE_TEPt
libupm-wt5001.so.1:_ZN3upm6WT500111setPlayModeENS0_17WT5001_PLAYMODE_TE
libupm-wt5001.so.1:_ZN3upm6WT500112getPlayStateEPh
libupm-wt5001.so.1:_ZN3upm6WT500112getPlayStateEv
libupm-wt5001.so.1:_ZN3upm6WT500113checkResponseENS0_15WT5001_OPCODE_TE
libupm-wt5001.so.1:_ZN3upm6WT500113dataAvailableEj
libupm-wt5001.so.1:_ZN3upm6WT500114getCurrentFileEPt
libupm-wt5001.so.1:_ZN3upm6WT500114getCurrentFileEv
libupm-wt5001.so.1:_ZN3upm6WT50014nextEv
libupm-wt5001.so.1:_ZN3upm6WT50014playENS0_19WT5001_PLAYSOURCE_TEt
libupm-wt5001.so.1:_ZN3upm6WT50014stopEv
libupm-wt5001.so.1:_ZN3upm6WT50015pauseEv
libupm-wt5001.so.1:_ZN3upm6WT50015queueEt
libupm-wt5001.so.1:_ZN3upm6WT50016insertEt
libupm-wt5001.so.1:_ZN3upm6WT50017getDateEPtPhS2_
libupm-wt5001.so.1:_ZN3upm6WT50017getTimeEPhS1_S1_
libupm-wt5001.so.1:_ZN3upm6WT50017setDateEthh
libupm-wt5001.so.1:_ZN3upm6WT50017setTimeEhhh
libupm-wt5001.so.1:_ZN3upm6WT50018previousEv
libupm-wt5001.so.1:_ZN3upm6WT50018readDataEPci
libupm-wt5001.so.1:_ZN3upm6WT50018setAlarmEhhh
libupm-wt5001.so.1:_ZN3upm6WT50018setupTtyEj
libupm-wt5001.so.1:_ZN3upm6WT50019getVolumeEPh
libupm-wt5001.so.1:_ZN3upm6WT50019getVolumeEv
libupm-wt5001.so.1:_ZN3upm6WT50019setVolumeEh
libupm-wt5001.so.1:_ZN3upm6WT50019writeDataEPci
libupm-wt5001.so.1:_ZN3upm6WT5001C1Ei
libupm-wt5001.so.1:_ZN3upm6WT5001C2Ei
libupm-wt5001.so.1:_ZN3upm6WT5001D1Ev
libupm-wt5001.so.1:_ZN3upm6WT5001D2Ev
libupm-xbee.so.1:_ZN3upm4XBee11commandModeENSt7__cxx1112basic_stringIcSt11char_traitsIcESaIcEEEi
libupm-xbee.so.1:_ZN3upm4XBee11readDataStrB5cxx11Ei
libupm-xbee.so.1:_ZN3upm4XBee11setBaudRateEi
libupm-xbee.so.1:_ZN3upm4XBee11stringCR2LFENSt7__cxx1112basic_stringIcSt11char_traitsIcESaIcEEE
libupm-xbee.so.1:_ZN3upm4XBee12writeDataStrENSt7__cxx1112basic_stringIcSt11char_traitsIcESaIcEEE
libupm-xbee.so.1:_ZN3upm4XBee13dataAvailableEj
libupm-xbee.so.1:_ZN3upm4XBee8readDataEPcj
libupm-xbee.so.1:_ZN3upm4XBee9writeDataEPcj
libupm-xbee.so.1:_ZN3upm4XBeeC1Ei
libupm-xbee.so.1:_ZN3upm4XBeeC2Ei
libupm-xbee.so.1:_ZN3upm4XBeeD1Ev
libupm-xbee.so.1:_ZN3upm4XBeeD2Ev
libupm-yg1006.so.1:_ZN3upm6YG100613flameDetectedEv
libupm-yg1006.so.1:_ZN3upm6YG1006C1Ej
libupm-yg1006.so.1:_ZN3upm6YG1006C2Ej
libupm-yg1006.so.1:_ZN3upm6YG1006D1Ev
libupm-yg1006.so.1:_ZN3upm6YG1006D2Ev
libupm-zfm20.so.1:_ZN3upm5ZFM2010storeModelEit
libupm-zfm20.so.1:_ZN3upm5ZFM2011createModelEv
libupm-zfm20.so.1:_ZN3upm5ZFM2011deleteModelEt
libupm-zfm20.so.1:_ZN3upm5ZFM2011getResponseEPhi
libupm-zfm20.so.1:_ZN3upm5ZFM2012verifyPacketEPhi
libupm-zfm20.so.1:_ZN3upm5ZFM2013generateImageEv
libupm-zfm20.so.1:_ZN3upm5ZFM2013setNewAddressEj
libupm-zfm20.so.1:_ZN3upm5ZFM2014setNewPasswordEj
libupm-zfm20.so.1:_ZN3upm5ZFM2014verifyPasswordEv
libupm-zfm20.so.1:_ZN3upm5ZFM2014writeCmdPacketEPhi
libupm-zfm20.so.1:_ZN3upm5ZFM2015getNumTemplatesEv
libupm-zfm20.so.1:_ZN3upm5ZFM205matchERt
libupm-zfm20.so.1:_ZN3upm5ZFM206searchEiRtS1_
libupm-zfm20.so.1:_ZN3upm5ZFM208deleteDBEv
libupm-zfm20.so.1:_ZN3upm5ZFM208image2TzEi
libupm-zfm20.so.1:_ZN3upm5ZFM208readDataEPci
libupm-zfm20.so.1:_ZN3upm5ZFM208setupTtyEj
libupm-zfm20.so.1:_ZN3upm5ZFM209getMillisEv
libupm-zfm20.so.1:_ZN3upm5ZFM209initClockEv
libupm-zfm20.so.1:_ZN3upm5ZFM209writeDataEPci
libupm-zfm20.so.1:_ZN3upm5ZFM20C1ENSt7__cxx1112basic_stringIcSt11char_traitsIcESaIcEEEi
libupm-zfm20.so.1:_ZN3upm5ZFM20C1Eii
libupm-zfm20.so.1:_ZN3upm5ZFM20C2ENSt7__cxx1112basic_stringIcSt11char_traitsIcESaIcEEEi
libupm-zfm20.so.1:_ZN3upm5ZFM20C2Eii
libupmc-a110x.so.1:a110x_close
libupmc-a110x.so.1:a110x_init
libupmc-a110x.so.1:a110x_install_isr
libupmc-a110x.so.1:a110x_magnet_detected
libupmc-a110x.so.1:a110x_uninstall_isr
libupmc-abp.so.1:abp_close
libupmc-abp.so.1:abp_get_pressure
libupmc-abp.so.1:abp_get_temperature
libupmc-abp.so.1:abp_init
libupmc-abp.so.1:abp_set_max_pressure
libupmc-abp.so.1:abp_set_min_pressure
libupmc-abp.so.1:abp_update
libupmc-ad8232.so.1:ad8232_close
libupmc-ad8232.so.1:ad8232_get_value
libupmc-ad8232.so.1:ad8232_init
libupmc-apa102.so.1:apa102_close
libupmc-apa102.so.1:apa102_init
libupmc-apa102.so.1:apa102_refresh
libupmc-apa102.so.1:apa102_set_led
libupmc-apa102.so.1:apa102_set_led_brightness
libupmc-apa102.so.1:apa102_set_leds
libupmc-apa102.so.1:apa102_set_leds_brightness
libupmc-bh1749.so.1:bh1749_check_who_am_i
libupmc-bh1749.so.1:bh1749_close
libupmc-bh1749.so.1:bh1749_disable
libupmc-bh1749.so.1:bh1749_disable_interrupt
libupmc-bh1749.so.1:bh1749_enable
libupmc-bh1749.so.1:bh1749_enable_interrupt
libupmc-bh1749.so.1:bh1749_get_blue
libupmc-bh1749.so.1:bh1749_get_green
libupmc-bh1749.so.1:bh1749_get_green2
libupmc-bh1749.so.1:bh1749_get_interrupt_source_char
libupmc-bh1749.so.1:bh1749_get_ir
libupmc-bh1749.so.1:bh1749_get_ir_gain
libupmc-bh1749.so.1:bh1749_get_measurement_time
libupmc-bh1749.so.1:bh1749_get_measurements
libupmc-bh1749.so.1:bh1749_get_operating_mode
libupmc-bh1749.so.1:bh1749_get_red
libupmc-bh1749.so.1:bh1749_get_rgb_gain
libupmc-bh1749.so.1:bh1749_get_threshold_high
libupmc-bh1749.so.1:bh1749_get_threshold_low
libupmc-bh1749.so.1:bh1749_init
libupmc-bh1749.so.1:bh1749_install_isr
libupmc-bh1749.so.1:bh1749_is_interrupt_enabled
libupmc-bh1749.so.1:bh1749_is_interrupted
libupmc-bh1749.so.1:bh1749_registers_dump
libupmc-bh1749.so.1:bh1749_remove_isr
libupmc-bh1749.so.1:bh1749_reset_interrupt
libupmc-bh1749.so.1:bh1749_sensor_init
libupmc-bh1749.so.1:bh1749_set_int_source
libupmc-bh1749.so.1:bh1749_set_ir_gain
libupmc-bh1749.so.1:bh1749_set_measurement_time
libupmc-bh1749.so.1:bh1749_set_operating_mode
libupmc-bh1749.so.1:bh1749_set_rgb_gain
libupmc-bh1749.so.1:bh1749_set_threshold_high
libupmc-bh1749.so.1:bh1749_set_threshold_low
libupmc-bh1749.so.1:bh1749_soft_reset
libupmc-bh1750.so.1:bh1750_close
libupmc-bh1750.so.1:bh1750_get_lux
libupmc-bh1750.so.1:bh1750_init
libupmc-bh1750.so.1:bh1750_power_down
libupmc-bh1750.so.1:bh1750_power_up
libupmc-bh1750.so.1:bh1750_read_data
libupmc-bh1750.so.1:bh1750_reset
libupmc-bh1750.so.1:bh1750_send_command
libupmc-bh1750.so.1:bh1750_set_opmode
libupmc-bh1792.so.1:bh1792_check_who_am_i
libupmc-bh1792.so.1:bh1792_clear_interrupt
libupmc-bh1792.so.1:bh1792_close
libupmc-bh1792.so.1:bh1792_disable_interrupt
libupmc-bh1792.so.1:bh1792_discard_fifo_data
libupmc-bh1792.so.1:bh1792_enable_non_sync_mode
libupmc-bh1792.so.1:bh1792_enable_single_mode
libupmc-bh1792.so.1:bh1792_enable_sync_mode
libupmc-bh1792.so.1:bh1792_get_fifo_data
libupmc-bh1792.so.1:bh1792_get_fifo_size
libupmc-bh1792.so.1:bh1792_get_green_data
libupmc-bh1792.so.1:bh1792_get_green_leds_current
libupmc-bh1792.so.1:bh1792_get_ir_data
libupmc-bh1792.so.1:bh1792_get_ir_led_current
libupmc-bh1792.so.1:bh1792_get_ir_threshold
libupmc-bh1792.so.1:bh1792_get_meas_time_ms
libupmc-bh1792.so.1:bh1792_init
libupmc-bh1792.so.1:bh1792_install_isr
libupmc-bh1792.so.1:bh1792_install_isr_falling_edge
libupmc-bh1792.so.1:bh1792_is_enabled
libupmc-bh1792.so.1:bh1792_registers_dump
libupmc-bh1792.so.1:bh1792_remove_isr
libupmc-bh1792.so.1:bh1792_restart_measurement
libupmc-bh1792.so.1:bh1792_set_green_leds_current
libupmc-bh1792.so.1:bh1792_set_ir_led_current
libupmc-bh1792.so.1:bh1792_set_ir_threshold
libupmc-bh1792.so.1:bh1792_soft_reset
libupmc-bh1792.so.1:bh1792_start_measurement
libupmc-bh1792.so.1:bh1792_stop_measurement
libupmc-biss0001.so.1:biss0001_close
libupmc-biss0001.so.1:biss0001_init
libupmc-biss0001.so.1:biss0001_motion_detected
libupmc-bma250e.so.1:bma250e_clear_interrupt_latches
libupmc-bma250e.so.1:bma250e_close
libupmc-bma250e.so.1:bma250e_devinit
libupmc-bma250e.so.1:bma250e_enable_fifo
libupmc-bma250e.so.1:bma250e_enable_output_filtering
libupmc-bma250e.so.1:bma250e_enable_register_shadowing
libupmc-bma250e.so.1:bma250e_fifo_config
libupmc-bma250e.so.1:bma250e_fifo_set_watermark
libupmc-bma250e.so.1:bma250e_get_accelerometer
libupmc-bma250e.so.1:bma250e_get_chip_id
libupmc-bma250e.so.1:bma250e_get_interrupt_enable0
libupmc-bma250e.so.1:bma250e_get_interrupt_enable1
libupmc-bma250e.so.1:bma250e_get_interrupt_enable2
libupmc-bma250e.so.1:bma250e_get_interrupt_latch_behavior
libupmc-bma250e.so.1:bma250e_get_interrupt_map0
libupmc-bma250e.so.1:bma250e_get_interrupt_map1
libupmc-bma250e.so.1:bma250e_get_interrupt_map2
libupmc-bma250e.so.1:bma250e_get_interrupt_output_control
libupmc-bma250e.so.1:bma250e_get_interrupt_src
libupmc-bma250e.so.1:bma250e_get_interrupt_status0
libupmc-bma250e.so.1:bma250e_get_interrupt_status1
libupmc-bma250e.so.1:bma250e_get_interrupt_status2
libupmc-bma250e.so.1:bma250e_get_interrupt_status3_bits
libupmc-bma250e.so.1:bma250e_get_interrupt_status3_orientation
libupmc-bma250e.so.1:bma250e_get_temperature
libupmc-bma250e.so.1:bma250e_init
libupmc-bma250e.so.1:bma250e_install_isr
libupmc-bma250e.so.1:bma250e_read_reg
libupmc-bma250e.so.1:bma250e_read_regs
libupmc-bma250e.so.1:bma250e_reset
libupmc-bma250e.so.1:bma250e_set_bandwidth
libupmc-bma250e.so.1:bma250e_set_interrupt_enable0
libupmc-bma250e.so.1:bma250e_set_interrupt_enable1
libupmc-bma250e.so.1:bma250e_set_interrupt_enable2
libupmc-bma250e.so.1:bma250e_set_interrupt_latch_behavior
libupmc-bma250e.so.1:bma250e_set_interrupt_map0
libupmc-bma250e.so.1:bma250e_set_interrupt_map1
libupmc-bma250e.so.1:bma250e_set_interrupt_map2
libupmc-bma250e.so.1:bma250e_set_interrupt_output_control
libupmc-bma250e.so.1:bma250e_set_interrupt_src
libupmc-bma250e.so.1:bma250e_set_low_power_mode2
libupmc-bma250e.so.1:bma250e_set_power_mode
libupmc-bma250e.so.1:bma250e_set_range
libupmc-bma250e.so.1:bma250e_set_self_test
libupmc-bma250e.so.1:bma250e_uninstall_isr
libupmc-bma250e.so.1:bma250e_update
libupmc-bma250e.so.1:bma250e_write_reg
libupmc-bmg160.so.1:bmg160_clear_interrupt_latches
libupmc-bmg160.so.1:bmg160_close
libupmc-bmg160.so.1:bmg160_devinit
libupmc-bmg160.so.1:bmg160_enable_fifo
libupmc-bmg160.so.1:bmg160_enable_output_filtering
libupmc-bmg160.so.1:bmg160_enable_register_shadowing
libupmc-bmg160.so.1:bmg160_fifo_config
libupmc-bmg160.so.1:bmg160_fifo_set_watermark
libupmc-bmg160.so.1:bmg160_get_chip_id
libupmc-bmg160.so.1:bmg160_get_gyroscope
libupmc-bmg160.so.1:bmg160_get_interrupt_enable0
libupmc-bmg160.so.1:bmg160_get_interrupt_latch_behavior
libupmc-bmg160.so.1:bmg160_get_interrupt_map0
libupmc-bmg160.so.1:bmg160_get_interrupt_map1
libupmc-bmg160.so.1:bmg160_get_interrupt_output_control
libupmc-bmg160.so.1:bmg160_get_interrupt_src
libupmc-bmg160.so.1:bmg160_get_interrupt_status0
libupmc-bmg160.so.1:bmg160_get_interrupt_status1
libupmc-bmg160.so.1:bmg160_get_interrupt_status2
libupmc-bmg160.so.1:bmg160_get_interrupt_status3
libupmc-bmg160.so.1:bmg160_get_temperature
libupmc-bmg160.so.1:bmg160_init
libupmc-bmg160.so.1:bmg160_install_isr
libupmc-bmg160.so.1:bmg160_read_reg
libupmc-bmg160.so.1:bmg160_read_regs
libupmc-bmg160.so.1:bmg160_reset
libupmc-bmg160.so.1:bmg160_set_bandwidth
libupmc-bmg160.so.1:bmg160_set_interrupt_enable0
libupmc-bmg160.so.1:bmg160_set_interrupt_latch_behavior
libupmc-bmg160.so.1:bmg160_set_interrupt_map0
libupmc-bmg160.so.1:bmg160_set_interrupt_map1
libupmc-bmg160.so.1:bmg160_set_interrupt_output_control
libupmc-bmg160.so.1:bmg160_set_interrupt_src
libupmc-bmg160.so.1:bmg160_set_power_mode
libupmc-bmg160.so.1:bmg160_set_range
libupmc-bmg160.so.1:bmg160_uninstall_isr
libupmc-bmg160.so.1:bmg160_update
libupmc-bmg160.so.1:bmg160_write_reg
libupmc-bmi160.so.1:bmi160_accel_foc_trigger_xyz
libupmc-bmi160.so.1:bmi160_bmm150_mag_compensate_X
libupmc-bmi160.so.1:bmi160_bmm150_mag_compensate_Y
libupmc-bmi160.so.1:bmi160_bmm150_mag_compensate_Z
libupmc-bmi160.so.1:bmi160_bmm150_mag_compensate_xyz
libupmc-bmi160.so.1:bmi160_bmm150_mag_interface_init
libupmc-bmi160.so.1:bmi160_bmm150_mag_set_power_mode
libupmc-bmi160.so.1:bmi160_bmm150_mag_wakeup
libupmc-bmi160.so.1:bmi160_bst_akm09911_compensate_X
libupmc-bmi160.so.1:bmi160_bst_akm09911_compensate_Y
libupmc-bmi160.so.1:bmi160_bst_akm09911_compensate_Z
libupmc-bmi160.so.1:bmi160_bst_akm09911_compensate_xyz
libupmc-bmi160.so.1:bmi160_bst_akm09912_compensate_X
libupmc-bmi160.so.1:bmi160_bst_akm09912_compensate_Y
libupmc-bmi160.so.1:bmi160_bst_akm09912_compensate_Z
libupmc-bmi160.so.1:bmi160_bst_akm09912_compensate_xyz
libupmc-bmi160.so.1:bmi160_bst_akm_mag_interface_init
libupmc-bmi160.so.1:bmi160_bst_akm_set_powermode
libupmc-bmi160.so.1:bmi160_bst_yamaha_yas532_calib_values
libupmc-bmi160.so.1:bmi160_bst_yamaha_yas532_mag_interface_init
libupmc-bmi160.so.1:bmi160_bst_yamaha_yas537_calib_values
libupmc-bmi160.so.1:bmi160_bst_yamaha_yas537_fifo_xyz_data
libupmc-bmi160.so.1:bmi160_bst_yamaha_yas537_mag_interface_init
libupmc-bmi160.so.1:bmi160_bst_yamaha_yas537_measure_xyz_data
libupmc-bmi160.so.1:bmi160_bst_yamaha_yas537_read_xy1y2_data
libupmc-bmi160.so.1:bmi160_bst_yas532_acquisition_command_register
libupmc-bmi160.so.1:bmi160_bst_yas532_fifo_xyz_data
libupmc-bmi160.so.1:bmi160_bst_yas532_magnetic_measure_set_offset
libupmc-bmi160.so.1:bmi160_bst_yas532_measurement_xyz_data
libupmc-bmi160.so.1:bmi160_bst_yas532_normal_measurement_data
libupmc-bmi160.so.1:bmi160_bst_yas532_set_initial_values
libupmc-bmi160.so.1:bmi160_bst_yas532_set_offset
libupmc-bmi160.so.1:bmi160_bst_yas532_xy1y2_to_linear
libupmc-bmi160.so.1:bmi160_bst_yas537_acquisition_command_register
libupmc-bmi160.so.1:bmi160_bus_read
libupmc-bmi160.so.1:bmi160_bus_write
libupmc-bmi160.so.1:bmi160_clear_step_counter
libupmc-bmi160.so.1:bmi160_close
libupmc-bmi160.so.1:bmi160_delay_ms
libupmc-bmi160.so.1:bmi160_enable_magnetometer
libupmc-bmi160.so.1:bmi160_fifo_data
libupmc-bmi160.so.1:bmi160_fifo_length
libupmc-bmi160.so.1:bmi160_get_accel_bw
libupmc-bmi160.so.1:bmi160_get_accel_data_rdy
libupmc-bmi160.so.1:bmi160_get_accel_fifo_filter_data
libupmc-bmi160.so.1:bmi160_get_accel_offset_compensation_xaxis
libupmc-bmi160.so.1:bmi160_get_accel_offset_compensation_yaxis
libupmc-bmi160.so.1:bmi160_get_accel_offset_compensation_zaxis
libupmc-bmi160.so.1:bmi160_get_accel_offset_enable
libupmc-bmi160.so.1:bmi160_get_accel_output_data_rate
libupmc-bmi160.so.1:bmi160_get_accel_power_mode_stat
libupmc-bmi160.so.1:bmi160_get_accel_range
libupmc-bmi160.so.1:bmi160_get_accel_selftest_amp
libupmc-bmi160.so.1:bmi160_get_accel_selftest_axis
libupmc-bmi160.so.1:bmi160_get_accel_selftest_sign
libupmc-bmi160.so.1:bmi160_get_accel_under_sampling_parameter
libupmc-bmi160.so.1:bmi160_get_accelerometer
libupmc-bmi160.so.1:bmi160_get_data_rdy_mag
libupmc-bmi160.so.1:bmi160_get_drop_cmd_err
libupmc-bmi160.so.1:bmi160_get_err_code
libupmc-bmi160.so.1:bmi160_get_error_status
libupmc-bmi160.so.1:bmi160_get_fatal_err
libupmc-bmi160.so.1:bmi160_get_fifo_accel_enable
libupmc-bmi160.so.1:bmi160_get_fifo_down_accel
libupmc-bmi160.so.1:bmi160_get_fifo_down_gyro
libupmc-bmi160.so.1:bmi160_get_fifo_gyro_enable
libupmc-bmi160.so.1:bmi160_get_fifo_header_enable
libupmc-bmi160.so.1:bmi160_get_fifo_mag_enable
libupmc-bmi160.so.1:bmi160_get_fifo_tag_intr1_enable
libupmc-bmi160.so.1:bmi160_get_fifo_tag_intr2_enable
libupmc-bmi160.so.1:bmi160_get_fifo_time_enable
libupmc-bmi160.so.1:bmi160_get_fifo_wm
libupmc-bmi160.so.1:bmi160_get_foc_accel_x
libupmc-bmi160.so.1:bmi160_get_foc_accel_y
libupmc-bmi160.so.1:bmi160_get_foc_accel_z
libupmc-bmi160.so.1:bmi160_get_foc_gyro_enable
libupmc-bmi160.so.1:bmi160_get_foc_rdy
libupmc-bmi160.so.1:bmi160_get_gyro_bw
libupmc-bmi160.so.1:bmi160_get_gyro_data_rdy
libupmc-bmi160.so.1:bmi160_get_gyro_fifo_filter_data
libupmc-bmi160.so.1:bmi160_get_gyro_offset_compensation_xaxis
libupmc-bmi160.so.1:bmi160_get_gyro_offset_compensation_yaxis
libupmc-bmi160.so.1:bmi160_get_gyro_offset_compensation_zaxis
libupmc-bmi160.so.1:bmi160_get_gyro_offset_enable
libupmc-bmi160.so.1:bmi160_get_gyro_output_data_rate
libupmc-bmi160.so.1:bmi160_get_gyro_power_mode_stat
libupmc-bmi160.so.1:bmi160_get_gyro_range
libupmc-bmi160.so.1:bmi160_get_gyro_selftest
libupmc-bmi160.so.1:bmi160_get_gyro_selftest_start
libupmc-bmi160.so.1:bmi160_get_gyro_sleep_state
libupmc-bmi160.so.1:bmi160_get_gyro_sleep_trigger
libupmc-bmi160.so.1:bmi160_get_gyro_wakeup_intr
libupmc-bmi160.so.1:bmi160_get_gyro_wakeup_trigger
libupmc-bmi160.so.1:bmi160_get_gyroscope
libupmc-bmi160.so.1:bmi160_get_i2c_device_addr
libupmc-bmi160.so.1:bmi160_get_i2c_fail_err
libupmc-bmi160.so.1:bmi160_get_i2c_wdt_enable
libupmc-bmi160.so.1:bmi160_get_i2c_wdt_select
libupmc-bmi160.so.1:bmi160_get_if_mode
libupmc-bmi160.so.1:bmi160_get_input_enable
libupmc-bmi160.so.1:bmi160_get_intr_any_motion
libupmc-bmi160.so.1:bmi160_get_intr_any_motion_durn
libupmc-bmi160.so.1:bmi160_get_intr_any_motion_thres
libupmc-bmi160.so.1:bmi160_get_intr_data_rdy
libupmc-bmi160.so.1:bmi160_get_intr_double_tap
libupmc-bmi160.so.1:bmi160_get_intr_edge_ctrl
libupmc-bmi160.so.1:bmi160_get_intr_enable_0
libupmc-bmi160.so.1:bmi160_get_intr_enable_1
libupmc-bmi160.so.1:bmi160_get_intr_enable_2
libupmc-bmi160.so.1:bmi160_get_intr_fifo_full
libupmc-bmi160.so.1:bmi160_get_intr_fifo_wm
libupmc-bmi160.so.1:bmi160_get_intr_flat
libupmc-bmi160.so.1:bmi160_get_intr_flat_hold
libupmc-bmi160.so.1:bmi160_get_intr_flat_hyst
libupmc-bmi160.so.1:bmi160_get_intr_flat_theta
libupmc-bmi160.so.1:bmi160_get_intr_high_g
libupmc-bmi160.so.1:bmi160_get_intr_high_g_durn
libupmc-bmi160.so.1:bmi160_get_intr_high_g_hyst
libupmc-bmi160.so.1:bmi160_get_intr_high_g_thres
libupmc-bmi160.so.1:bmi160_get_intr_level
libupmc-bmi160.so.1:bmi160_get_intr_low_g
libupmc-bmi160.so.1:bmi160_get_intr_low_g_durn
libupmc-bmi160.so.1:bmi160_get_intr_low_g_hyst
libupmc-bmi160.so.1:bmi160_get_intr_low_g_mode
libupmc-bmi160.so.1:bmi160_get_intr_low_g_thres
libupmc-bmi160.so.1:bmi160_get_intr_low_high_source
libupmc-bmi160.so.1:bmi160_get_intr_motion_source
libupmc-bmi160.so.1:bmi160_get_intr_nomotion
libupmc-bmi160.so.1:bmi160_get_intr_orient
libupmc-bmi160.so.1:bmi160_get_intr_orient_axes_enable
libupmc-bmi160.so.1:bmi160_get_intr_orient_blocking
libupmc-bmi160.so.1:bmi160_get_intr_orient_hyst
libupmc-bmi160.so.1:bmi160_get_intr_orient_mode
libupmc-bmi160.so.1:bmi160_get_intr_orient_theta
libupmc-bmi160.so.1:bmi160_get_intr_orient_ud_enable
libupmc-bmi160.so.1:bmi160_get_intr_output_type
libupmc-bmi160.so.1:bmi160_get_intr_pmu_trig
libupmc-bmi160.so.1:bmi160_get_intr_significant_motion_proof
libupmc-bmi160.so.1:bmi160_get_intr_significant_motion_select
libupmc-bmi160.so.1:bmi160_get_intr_significant_motion_skip
libupmc-bmi160.so.1:bmi160_get_intr_single_tap
libupmc-bmi160.so.1:bmi160_get_intr_slow_no_motion_durn
libupmc-bmi160.so.1:bmi160_get_intr_slow_no_motion_select
libupmc-bmi160.so.1:bmi160_get_intr_slow_no_motion_thres
libupmc-bmi160.so.1:bmi160_get_intr_tap_durn
libupmc-bmi160.so.1:bmi160_get_intr_tap_quiet
libupmc-bmi160.so.1:bmi160_get_intr_tap_shock
libupmc-bmi160.so.1:bmi160_get_intr_tap_source
libupmc-bmi160.so.1:bmi160_get_intr_tap_thres
libupmc-bmi160.so.1:bmi160_get_latch_intr
libupmc-bmi160.so.1:bmi160_get_mag_burst
libupmc-bmi160.so.1:bmi160_get_mag_dada_rdy_err
libupmc-bmi160.so.1:bmi160_get_mag_manual_enable
libupmc-bmi160.so.1:bmi160_get_mag_manual_operation_stat
libupmc-bmi160.so.1:bmi160_get_mag_offset
libupmc-bmi160.so.1:bmi160_get_mag_output_data_rate
libupmc-bmi160.so.1:bmi160_get_mag_power_mode_stat
libupmc-bmi160.so.1:bmi160_get_mag_read_addr
libupmc-bmi160.so.1:bmi160_get_mag_write_addr
libupmc-bmi160.so.1:bmi160_get_mag_write_data
libupmc-bmi160.so.1:bmi160_get_magnetometer
libupmc-bmi160.so.1:bmi160_get_nvm_counter
libupmc-bmi160.so.1:bmi160_get_nvm_prog_enable
libupmc-bmi160.so.1:bmi160_get_nvm_rdy
libupmc-bmi160.so.1:bmi160_get_output_enable
libupmc-bmi160.so.1:bmi160_get_paging_enable
libupmc-bmi160.so.1:bmi160_get_ptr
libupmc-bmi160.so.1:bmi160_get_pullup_configuration
libupmc-bmi160.so.1:bmi160_get_sensor_time
libupmc-bmi160.so.1:bmi160_get_spare0_trim
libupmc-bmi160.so.1:bmi160_get_spi3
libupmc-bmi160.so.1:bmi160_get_spi_enable
libupmc-bmi160.so.1:bmi160_get_stat0_any_motion_intr
libupmc-bmi160.so.1:bmi160_get_stat0_double_tap_intr
libupmc-bmi160.so.1:bmi160_get_stat0_flat_intr
libupmc-bmi160.so.1:bmi160_get_stat0_orient_intr
libupmc-bmi160.so.1:bmi160_get_stat0_pmu_trigger_intr
libupmc-bmi160.so.1:bmi160_get_stat0_significant_intr
libupmc-bmi160.so.1:bmi160_get_stat0_single_tap_intr
libupmc-bmi160.so.1:bmi160_get_stat0_step_intr
libupmc-bmi160.so.1:bmi160_get_stat1_data_rdy_intr
libupmc-bmi160.so.1:bmi160_get_stat1_fifo_full_intr
libupmc-bmi160.so.1:bmi160_get_stat1_fifo_wm_intr
libupmc-bmi160.so.1:bmi160_get_stat1_high_g_intr
libupmc-bmi160.so.1:bmi160_get_stat1_low_g_intr
libupmc-bmi160.so.1:bmi160_get_stat1_nomotion_intr
libupmc-bmi160.so.1:bmi160_get_stat2_any_motion_first_x
libupmc-bmi160.so.1:bmi160_get_stat2_any_motion_first_y
libupmc-bmi160.so.1:bmi160_get_stat2_any_motion_first_z
libupmc-bmi160.so.1:bmi160_get_stat2_any_motion_sign
libupmc-bmi160.so.1:bmi160_get_stat2_tap_first_x
libupmc-bmi160.so.1:bmi160_get_stat2_tap_first_y
libupmc-bmi160.so.1:bmi160_get_stat2_tap_first_z
libupmc-bmi160.so.1:bmi160_get_stat2_tap_sign
libupmc-bmi160.so.1:bmi160_get_stat3_flat
libupmc-bmi160.so.1:bmi160_get_stat3_high_g_first_x
libupmc-bmi160.so.1:bmi160_get_stat3_high_g_first_y
libupmc-bmi160.so.1:bmi160_get_stat3_high_g_first_z
libupmc-bmi160.so.1:bmi160_get_stat3_high_g_sign
libupmc-bmi160.so.1:bmi160_get_stat3_orient_xy
libupmc-bmi160.so.1:bmi160_get_stat3_orient_z
libupmc-bmi160.so.1:bmi160_get_step_config
libupmc-bmi160.so.1:bmi160_get_step_counter_enable
libupmc-bmi160.so.1:bmi160_get_step_detector_enable
libupmc-bmi160.so.1:bmi160_get_target_page
libupmc-bmi160.so.1:bmi160_get_temp
libupmc-bmi160.so.1:bmi160_get_time
libupmc-bmi160.so.1:bmi160_init
libupmc-bmi160.so.1:bmi160_init_bus
libupmc-bmi160.so.1:bmi160_map_significant_motion_intr
libupmc-bmi160.so.1:bmi160_map_step_detector_intr
libupmc-bmi160.so.1:bmi160_read_accel_x
libupmc-bmi160.so.1:bmi160_read_accel_xyz
libupmc-bmi160.so.1:bmi160_read_accel_y
libupmc-bmi160.so.1:bmi160_read_accel_z
libupmc-bmi160.so.1:bmi160_read_bmm150_mag_trim
libupmc-bmi160.so.1:bmi160_read_bst_akm_sensitivity_data
libupmc-bmi160.so.1:bmi160_read_fifo_header_data
libupmc-bmi160.so.1:bmi160_read_fifo_header_data_user_defined_length
libupmc-bmi160.so.1:bmi160_read_fifo_headerless_mode
libupmc-bmi160.so.1:bmi160_read_fifo_headerless_mode_user_defined_length
libupmc-bmi160.so.1:bmi160_read_gyro_x
libupmc-bmi160.so.1:bmi160_read_gyro_xyz
libupmc-bmi160.so.1:bmi160_read_gyro_y
libupmc-bmi160.so.1:bmi160_read_gyro_z
libupmc-bmi160.so.1:bmi160_read_mag_r
libupmc-bmi160.so.1:bmi160_read_mag_x
libupmc-bmi160.so.1:bmi160_read_mag_xyz
libupmc-bmi160.so.1:bmi160_read_mag_xyzr
libupmc-bmi160.so.1:bmi160_read_mag_y
libupmc-bmi160.so.1:bmi160_read_mag_z
libupmc-bmi160.so.1:bmi160_read_reg
libupmc-bmi160.so.1:bmi160_read_step_count
libupmc-bmi160.so.1:bmi160_second_if_mag_compensate_xyz
libupmc-bmi160.so.1:bmi160_set_accel_bw
libupmc-bmi160.so.1:bmi160_set_accel_fifo_filter_data
libupmc-bmi160.so.1:bmi160_set_accel_foc_trigger
libupmc-bmi160.so.1:bmi160_set_accel_offset_compensation_xaxis
libupmc-bmi160.so.1:bmi160_set_accel_offset_compensation_yaxis
libupmc-bmi160.so.1:bmi160_set_accel_offset_compensation_zaxis
libupmc-bmi160.so.1:bmi160_set_accel_offset_enable
libupmc-bmi160.so.1:bmi160_set_accel_output_data_rate
libupmc-bmi160.so.1:bmi160_set_accel_range
libupmc-bmi160.so.1:bmi160_set_accel_selftest_amp
libupmc-bmi160.so.1:bmi160_set_accel_selftest_axis
libupmc-bmi160.so.1:bmi160_set_accel_selftest_sign
libupmc-bmi160.so.1:bmi160_set_accel_under_sampling_parameter
libupmc-bmi160.so.1:bmi160_set_accelerometer_scale
libupmc-bmi160.so.1:bmi160_set_bmm150_mag_and_secondary_if_power_mode
libupmc-bmi160.so.1:bmi160_set_bmm150_mag_presetmode
libupmc-bmi160.so.1:bmi160_set_bst_akm_and_secondary_if_powermode
libupmc-bmi160.so.1:bmi160_set_command_register
libupmc-bmi160.so.1:bmi160_set_fifo_accel_enable
libupmc-bmi160.so.1:bmi160_set_fifo_down_accel
libupmc-bmi160.so.1:bmi160_set_fifo_down_gyro
libupmc-bmi160.so.1:bmi160_set_fifo_gyro_enable
libupmc-bmi160.so.1:bmi160_set_fifo_header_enable
libupmc-bmi160.so.1:bmi160_set_fifo_mag_enable
libupmc-bmi160.so.1:bmi160_set_fifo_tag_intr1_enable
libupmc-bmi160.so.1:bmi160_set_fifo_tag_intr2_enable
libupmc-bmi160.so.1:bmi160_set_fifo_time_enable
libupmc-bmi160.so.1:bmi160_set_fifo_wm
libupmc-bmi160.so.1:bmi160_set_foc_accel_x
libupmc-bmi160.so.1:bmi160_set_foc_accel_y
libupmc-bmi160.so.1:bmi160_set_foc_accel_z
libupmc-bmi160.so.1:bmi160_set_foc_gyro_enable
libupmc-bmi160.so.1:bmi160_set_gyro_bw
libupmc-bmi160.so.1:bmi160_set_gyro_fifo_filter_data
libupmc-bmi160.so.1:bmi160_set_gyro_offset_compensation_xaxis
libupmc-bmi160.so.1:bmi160_set_gyro_offset_compensation_yaxis
libupmc-bmi160.so.1:bmi160_set_gyro_offset_compensation_zaxis
libupmc-bmi160.so.1:bmi160_set_gyro_offset_enable
libupmc-bmi160.so.1:bmi160_set_gyro_output_data_rate
libupmc-bmi160.so.1:bmi160_set_gyro_range
libupmc-bmi160.so.1:bmi160_set_gyro_selftest_start
libupmc-bmi160.so.1:bmi160_set_gyro_sleep_state
libupmc-bmi160.so.1:bmi160_set_gyro_sleep_trigger
libupmc-bmi160.so.1:bmi160_set_gyro_wakeup_intr
libupmc-bmi160.so.1:bmi160_set_gyro_wakeup_trigger
libupmc-bmi160.so.1:bmi160_set_gyroscope_scale
libupmc-bmi160.so.1:bmi160_set_i2c_device_addr
libupmc-bmi160.so.1:bmi160_set_i2c_wdt_enable
libupmc-bmi160.so.1:bmi160_set_i2c_wdt_select
libupmc-bmi160.so.1:bmi160_set_if_mode
libupmc-bmi160.so.1:bmi160_set_input_enable
libupmc-bmi160.so.1:bmi160_set_intr_any_motion
libupmc-bmi160.so.1:bmi160_set_intr_any_motion_durn
libupmc-bmi160.so.1:bmi160_set_intr_any_motion_thres
libupmc-bmi160.so.1:bmi160_set_intr_data_rdy
libupmc-bmi160.so.1:bmi160_set_intr_double_tap
libupmc-bmi160.so.1:bmi160_set_intr_edge_ctrl
libupmc-bmi160.so.1:bmi160_set_intr_enable_0
libupmc-bmi160.so.1:bmi160_set_intr_enable_1
libupmc-bmi160.so.1:bmi160_set_intr_enable_2
libupmc-bmi160.so.1:bmi160_set_intr_fifo_full
libupmc-bmi160.so.1:bmi160_set_intr_fifo_wm
libupmc-bmi160.so.1:bmi160_set_intr_flat
libupmc-bmi160.so.1:bmi160_set_intr_flat_hold
libupmc-bmi160.so.1:bmi160_set_intr_flat_hyst
libupmc-bmi160.so.1:bmi160_set_intr_flat_theta
libupmc-bmi160.so.1:bmi160_set_intr_high_g
libupmc-bmi160.so.1:bmi160_set_intr_high_g_durn
libupmc-bmi160.so.1:bmi160_set_intr_high_g_hyst
libupmc-bmi160.so.1:bmi160_set_intr_high_g_thres
libupmc-bmi160.so.1:bmi160_set_intr_level
libupmc-bmi160.so.1:bmi160_set_intr_low_g
libupmc-bmi160.so.1:bmi160_set_intr_low_g_durn
libupmc-bmi160.so.1:bmi160_set_intr_low_g_hyst
libupmc-bmi160.so.1:bmi160_set_intr_low_g_mode
libupmc-bmi160.so.1:bmi160_set_intr_low_g_thres
libupmc-bmi160.so.1:bmi160_set_intr_low_high_source
libupmc-bmi160.so.1:bmi160_set_intr_motion_source
libupmc-bmi160.so.1:bmi160_set_intr_nomotion
libupmc-bmi160.so.1:bmi160_set_intr_orient
libupmc-bmi160.so.1:bmi160_set_intr_orient_axes_enable
libupmc-bmi160.so.1:bmi160_set_intr_orient_blocking
libupmc-bmi160.so.1:bmi160_set_intr_orient_hyst
libupmc-bmi160.so.1:bmi160_set_intr_orient_mode
libupmc-bmi160.so.1:bmi160_set_intr_orient_theta
libupmc-bmi160.so.1:bmi160_set_intr_orient_ud_enable
libupmc-bmi160.so.1:bmi160_set_intr_output_type
libupmc-bmi160.so.1:bmi160_set_intr_pmu_trig
libupmc-bmi160.so.1:bmi160_set_intr_significant_motion_proof
libupmc-bmi160.so.1:bmi160_set_intr_significant_motion_select
libupmc-bmi160.so.1:bmi160_set_intr_significant_motion_skip
libupmc-bmi160.so.1:bmi160_set_intr_single_tap
libupmc-bmi160.so.1:bmi160_set_intr_slow_no_motion_durn
libupmc-bmi160.so.1:bmi160_set_intr_slow_no_motion_select
libupmc-bmi160.so.1:bmi160_set_intr_slow_no_motion_thres
libupmc-bmi160.so.1:bmi160_set_intr_tap_durn
libupmc-bmi160.so.1:bmi160_set_intr_tap_quiet
libupmc-bmi160.so.1:bmi160_set_intr_tap_shock
libupmc-bmi160.so.1:bmi160_set_intr_tap_source
libupmc-bmi160.so.1:bmi160_set_intr_tap_thres
libupmc-bmi160.so.1:bmi160_set_latch_intr
libupmc-bmi160.so.1:bmi160_set_mag_burst
libupmc-bmi160.so.1:bmi160_set_mag_interface_normal
libupmc-bmi160.so.1:bmi160_set_mag_manual_enable
libupmc-bmi160.so.1:bmi160_set_mag_offset
libupmc-bmi160.so.1:bmi160_set_mag_output_data_rate
libupmc-bmi160.so.1:bmi160_set_mag_read_addr
libupmc-bmi160.so.1:bmi160_set_mag_write_addr
libupmc-bmi160.so.1:bmi160_set_mag_write_data
libupmc-bmi160.so.1:bmi160_set_nvm_counter
libupmc-bmi160.so.1:bmi160_set_nvm_prog_enable
libupmc-bmi160.so.1:bmi160_set_output_enable
libupmc-bmi160.so.1:bmi160_set_paging_enable
libupmc-bmi160.so.1:bmi160_set_pullup_configuration
libupmc-bmi160.so.1:bmi160_set_spare0_trim
libupmc-bmi160.so.1:bmi160_set_spi3
libupmc-bmi160.so.1:bmi160_set_spi_enable
libupmc-bmi160.so.1:bmi160_set_step_config
libupmc-bmi160.so.1:bmi160_set_step_counter_enable
libupmc-bmi160.so.1:bmi160_set_step_detector_enable
libupmc-bmi160.so.1:bmi160_set_step_mode
libupmc-bmi160.so.1:bmi160_set_target_page
libupmc-bmi160.so.1:bmi160_update
libupmc-bmi160.so.1:bmi160_write_reg
libupmc-bmm150.so.1:bmm150_close
libupmc-bmm150.so.1:bmm150_devinit
libupmc-bmm150.so.1:bmm150_get_chip_id
libupmc-bmm150.so.1:bmm150_get_interrupt_config
libupmc-bmm150.so.1:bmm150_get_interrupt_enable
libupmc-bmm150.so.1:bmm150_get_interrupt_status
libupmc-bmm150.so.1:bmm150_get_magnetometer
libupmc-bmm150.so.1:bmm150_get_opmode
libupmc-bmm150.so.1:bmm150_init
libupmc-bmm150.so.1:bmm150_install_isr
libupmc-bmm150.so.1:bmm150_read_reg
libupmc-bmm150.so.1:bmm150_read_regs
libupmc-bmm150.so.1:bmm150_reset
libupmc-bmm150.so.1:bmm150_set_interrupt_config
libupmc-bmm150.so.1:bmm150_set_interrupt_enable
libupmc-bmm150.so.1:bmm150_set_opmode
libupmc-bmm150.so.1:bmm150_set_output_data_rate
libupmc-bmm150.so.1:bmm150_set_power_bit
libupmc-bmm150.so.1:bmm150_set_preset_mode
libupmc-bmm150.so.1:bmm150_set_repetitions_xy
libupmc-bmm150.so.1:bmm150_set_repetitions_z
libupmc-bmm150.so.1:bmm150_uninstall_isr
libupmc-bmm150.so.1:bmm150_update
libupmc-bmm150.so.1:bmm150_write_reg
libupmc-bmp280.so.1:bmp280_close
libupmc-bmp280.so.1:bmp280_get_altitude
libupmc-bmp280.so.1:bmp280_get_chip_id
libupmc-bmp280.so.1:bmp280_get_humidity
libupmc-bmp280.so.1:bmp280_get_pressure
libupmc-bmp280.so.1:bmp280_get_status
libupmc-bmp280.so.1:bmp280_get_temperature
libupmc-bmp280.so.1:bmp280_init
libupmc-bmp280.so.1:bmp280_read_reg
libupmc-bmp280.so.1:bmp280_read_regs
libupmc-bmp280.so.1:bmp280_reset
libupmc-bmp280.so.1:bmp280_set_filter
libupmc-bmp280.so.1:bmp280_set_measure_mode
libupmc-bmp280.so.1:bmp280_set_oversample_rate_humidity
libupmc-bmp280.so.1:bmp280_set_oversample_rate_pressure
libupmc-bmp280.so.1:bmp280_set_oversample_rate_temperature
libupmc-bmp280.so.1:bmp280_set_sea_level_pressure
libupmc-bmp280.so.1:bmp280_set_timer_standby
libupmc-bmp280.so.1:bmp280_set_usage_mode
libupmc-bmp280.so.1:bmp280_update
libupmc-bmp280.so.1:bmp280_write_reg
libupmc-bmpx8x.so.1:bmpx8x_close
libupmc-bmpx8x.so.1:bmpx8x_devinit
libupmc-bmpx8x.so.1:bmpx8x_get_altitude
libupmc-bmpx8x.so.1:bmpx8x_get_chip_id
libupmc-bmpx8x.so.1:bmpx8x_get_pressure
libupmc-bmpx8x.so.1:bmpx8x_get_sealevel_pressure
libupmc-bmpx8x.so.1:bmpx8x_get_temperature
libupmc-bmpx8x.so.1:bmpx8x_init
libupmc-bmpx8x.so.1:bmpx8x_read_reg
libupmc-bmpx8x.so.1:bmpx8x_read_regs
libupmc-bmpx8x.so.1:bmpx8x_reset
libupmc-bmpx8x.so.1:bmpx8x_set_oversampling
libupmc-bmpx8x.so.1:bmpx8x_update
libupmc-bmpx8x.so.1:bmpx8x_write_reg
libupmc-bno055.so.1:bno055_close
libupmc-bno055.so.1:bno055_get_acc_id
libupmc-bno055.so.1:bno055_get_accelerometer
libupmc-bno055.so.1:bno055_get_bootloader_id
libupmc-bno055.so.1:bno055_get_calibration_status
libupmc-bno055.so.1:bno055_get_chip_id
libupmc-bno055.so.1:bno055_get_euler_angles
libupmc-bno055.so.1:bno055_get_gravity_vectors
libupmc-bno055.so.1:bno055_get_gyr_id
libupmc-bno055.so.1:bno055_get_gyroscope
libupmc-bno055.so.1:bno055_get_interrupt_enable
libupmc-bno055.so.1:bno055_get_interrupt_mask
libupmc-bno055.so.1:bno055_get_interrupt_status
libupmc-bno055.so.1:bno055_get_linear_acceleration
libupmc-bno055.so.1:bno055_get_mag_id
libupmc-bno055.so.1:bno055_get_magnetometer
libupmc-bno055.so.1:bno055_get_quaternions
libupmc-bno055.so.1:bno055_get_sw_revision
libupmc-bno055.so.1:bno055_get_system_error
libupmc-bno055.so.1:bno055_get_system_status
libupmc-bno055.so.1:bno055_get_temperature
libupmc-bno055.so.1:bno055_init
libupmc-bno055.so.1:bno055_install_isr
libupmc-bno055.so.1:bno055_is_fully_calibrated
libupmc-bno055.so.1:bno055_read_calibration_data
libupmc-bno055.so.1:bno055_read_reg
libupmc-bno055.so.1:bno055_read_regs
libupmc-bno055.so.1:bno055_reset_interrupt_status
libupmc-bno055.so.1:bno055_reset_system
libupmc-bno055.so.1:bno055_set_acceleration_config
libupmc-bno055.so.1:bno055_set_accelerometer_units
libupmc-bno055.so.1:bno055_set_clock_external
libupmc-bno055.so.1:bno055_set_euler_units
libupmc-bno055.so.1:bno055_set_gyroscope_config
libupmc-bno055.so.1:bno055_set_gyroscope_units
libupmc-bno055.so.1:bno055_set_interrupt_enable
libupmc-bno055.so.1:bno055_set_interrupt_mask
libupmc-bno055.so.1:bno055_set_magnetometer_config
libupmc-bno055.so.1:bno055_set_operation_mode
libupmc-bno055.so.1:bno055_set_page
libupmc-bno055.so.1:bno055_set_temperature_source
libupmc-bno055.so.1:bno055_set_temperature_units_celsius
libupmc-bno055.so.1:bno055_uninstall_isr
libupmc-bno055.so.1:bno055_update
libupmc-bno055.so.1:bno055_write_calibration_data
libupmc-bno055.so.1:bno055_write_reg
libupmc-bno055.so.1:bno055_write_regs
libupmc-button.so.1:button_close
libupmc-button.so.1:button_get_value
libupmc-button.so.1:button_init
libupmc-button.so.1:button_install_isr
libupmc-button.so.1:button_uninstall_isr
libupmc-buzzer.so.1:buzzer_close
libupmc-buzzer.so.1:buzzer_get_volume
libupmc-buzzer.so.1:buzzer_init
libupmc-buzzer.so.1:buzzer_play_sound
libupmc-buzzer.so.1:buzzer_set_volume
libupmc-buzzer.so.1:buzzer_stop_sound
libupmc-cjq4435.so.1:cjq4435_close
libupmc-cjq4435.so.1:cjq4435_enable
libupmc-cjq4435.so.1:cjq4435_init
libupmc-cjq4435.so.1:cjq4435_off
libupmc-cjq4435.so.1:cjq4435_on
libupmc-cjq4435.so.1:cjq4435_set_duty_cycle
libupmc-cjq4435.so.1:cjq4435_set_period_ms
libupmc-cjq4435.so.1:cjq4435_set_period_seconds
libupmc-cjq4435.so.1:cjq4435_set_period_us
libupmc-collision.so.1:collision_close
libupmc-collision.so.1:collision_init
libupmc-collision.so.1:collision_is_colliding
libupmc-dfrec.so.1:dfrec_close
libupmc-dfrec.so.1:dfrec_get_ec
libupmc-dfrec.so.1:dfrec_get_normalized
libupmc-dfrec.so.1:dfrec_get_temperature
libupmc-dfrec.so.1:dfrec_get_volts
libupmc-dfrec.so.1:dfrec_init
libupmc-dfrec.so.1:dfrec_set_offset
libupmc-dfrec.so.1:dfrec_set_scale
libupmc-dfrec.so.1:dfrec_set_threshold_1
libupmc-dfrec.so.1:dfrec_set_threshold_2
libupmc-dfrec.so.1:dfrec_set_threshold_3
libupmc-dfrec.so.1:dfrec_set_threshold_min_max
libupmc-dfrec.so.1:dfrec_update
libupmc-dfrorp.so.1:dfrorp_close
libupmc-dfrorp.so.1:dfrorp_get_normalized
libupmc-dfrorp.so.1:dfrorp_get_orp
libupmc-dfrorp.so.1:dfrorp_get_volts
libupmc-dfrorp.so.1:dfrorp_init
libupmc-dfrorp.so.1:dfrorp_set_calibration_offset
libupmc-dfrorp.so.1:dfrorp_set_offset
libupmc-dfrorp.so.1:dfrorp_set_scale
libupmc-dfrorp.so.1:dfrorp_update
libupmc-dfrph.so.1:dfrph_close
libupmc-dfrph.so.1:dfrph_get_aref
libupmc-dfrph.so.1:dfrph_get_ph
libupmc-dfrph.so.1:dfrph_get_raw_volts
libupmc-dfrph.so.1:dfrph_init
libupmc-dfrph.so.1:dfrph_set_aref
libupmc-dfrph.so.1:dfrph_set_offset
libupmc-dfrph.so.1:dfrph_set_scale
libupmc-ds18b20.so.1:ds18b20_close
libupmc-ds18b20.so.1:ds18b20_copy_scratchpad
libupmc-ds18b20.so.1:ds18b20_devices_found
libupmc-ds18b20.so.1:ds18b20_get_id
libupmc-ds18b20.so.1:ds18b20_get_temperature
libupmc-ds18b20.so.1:ds18b20_init
libupmc-ds18b20.so.1:ds18b20_recall_eeprom
libupmc-ds18b20.so.1:ds18b20_set_resolution
libupmc-ds18b20.so.1:ds18b20_update
libupmc-ecezo.so.1:ecezo_calibrate
libupmc-ecezo.so.1:ecezo_close
libupmc-ecezo.so.1:ecezo_get_ec
libupmc-ecezo.so.1:ecezo_get_salinity
libupmc-ecezo.so.1:ecezo_get_sg
libupmc-ecezo.so.1:ecezo_get_tds
libupmc-ecezo.so.1:ecezo_i2c_init
libupmc-ecezo.so.1:ecezo_read
libupmc-ecezo.so.1:ecezo_send_command
libupmc-ecezo.so.1:ecezo_set_continuous
libupmc-ecezo.so.1:ecezo_set_k_value
libupmc-ecezo.so.1:ecezo_set_led
libupmc-ecezo.so.1:ecezo_set_sleep
libupmc-ecezo.so.1:ecezo_set_temperature
libupmc-ecezo.so.1:ecezo_uart_init
libupmc-ecezo.so.1:ecezo_update
libupmc-ecezo.so.1:ecezo_write
libupmc-emg.so.1:emg_close
libupmc-emg.so.1:emg_get_aref
libupmc-emg.so.1:emg_get_normalized
libupmc-emg.so.1:emg_get_offset
libupmc-emg.so.1:emg_get_raw_volts
libupmc-emg.so.1:emg_get_scale
libupmc-emg.so.1:emg_get_volts
libupmc-emg.so.1:emg_init
libupmc-emg.so.1:emg_set_aref
libupmc-emg.so.1:emg_set_offset
libupmc-emg.so.1:emg_set_scale
libupmc-enc03r.so.1:enc03r_angular_velocity
libupmc-enc03r.so.1:enc03r_calibrate
libupmc-enc03r.so.1:enc03r_calibration_value
libupmc-enc03r.so.1:enc03r_close
libupmc-enc03r.so.1:enc03r_get_normalized
libupmc-enc03r.so.1:enc03r_init
libupmc-enc03r.so.1:enc03r_set_offset
libupmc-enc03r.so.1:enc03r_set_scale
libupmc-enc03r.so.1:enc03r_update
libupmc-flex.so.1:flex_close
libupmc-flex.so.1:flex_get_aref
libupmc-flex.so.1:flex_get_normalized
libupmc-flex.so.1:flex_get_offset
libupmc-flex.so.1:flex_get_raw_volts
libupmc-flex.so.1:flex_get_scale
libupmc-flex.so.1:flex_get_volts
libupmc-flex.so.1:flex_init
libupmc-flex.so.1:flex_set_aref
libupmc-flex.so.1:flex_set_offset
libupmc-flex.so.1:flex_set_scale
libupmc-gas.so.1:mqx_close
libupmc-gas.so.1:mqx_get_aref
libupmc-gas.so.1:mqx_get_normalized
libupmc-gas.so.1:mqx_get_offset
libupmc-gas.so.1:mqx_get_raw_volts
libupmc-gas.so.1:mqx_get_scale
libupmc-gas.so.1:mqx_get_volts
libupmc-gas.so.1:mqx_init
libupmc-gas.so.1:mqx_set_aref
libupmc-gas.so.1:mqx_set_offset
libupmc-gas.so.1:mqx_set_scale
libupmc-gp2y0a.so.1:gp2y0a_close
libupmc-gp2y0a.so.1:gp2y0a_get_value
libupmc-gp2y0a.so.1:gp2y0a_init
libupmc-gsr.so.1:gsr_close
libupmc-gsr.so.1:gsr_get_aref
libupmc-gsr.so.1:gsr_get_normalized
libupmc-gsr.so.1:gsr_get_offset
libupmc-gsr.so.1:gsr_get_raw_volts
libupmc-gsr.so.1:gsr_get_scale
libupmc-gsr.so.1:gsr_get_volts
libupmc-gsr.so.1:gsr_init
libupmc-gsr.so.1:gsr_set_aref
libupmc-gsr.so.1:gsr_set_offset
libupmc-gsr.so.1:gsr_set_scale
libupmc-guvas12d.so.1:guvas12d_close
libupmc-guvas12d.so.1:guvas12d_get_intensity
libupmc-guvas12d.so.1:guvas12d_get_volts
libupmc-guvas12d.so.1:guvas12d_init
libupmc-guvas12d.so.1:guvas12d_set_offset
libupmc-guvas12d.so.1:guvas12d_set_scale
libupmc-hcsr04.so.1:hcsr04_close
libupmc-hcsr04.so.1:hcsr04_get_distance
libupmc-hcsr04.so.1:hcsr04_init
libupmc-hka5.so.1:hka5_close
libupmc-hka5.so.1:hka5_enable
libupmc-hka5.so.1:hka5_get_pm1
libupmc-hka5.so.1:hka5_get_pm10
libupmc-hka5.so.1:hka5_get_pm2_5
libupmc-hka5.so.1:hka5_init
libupmc-hka5.so.1:hka5_reset
libupmc-hka5.so.1:hka5_update
libupmc-hmc5883l.so.1:hmc5883l_close
libupmc-hmc5883l.so.1:hmc5883l_coordinates
libupmc-hmc5883l.so.1:hmc5883l_direction
libupmc-hmc5883l.so.1:hmc5883l_get_declination
libupmc-hmc5883l.so.1:hmc5883l_heading
libupmc-hmc5883l.so.1:hmc5883l_init
libupmc-hmc5883l.so.1:hmc5883l_set_declination
libupmc-hmc5883l.so.1:hmc5883l_update
libupmc-ims.so.1:ims_close
libupmc-ims.so.1:ims_get_light
libupmc-ims.so.1:ims_get_moisture
libupmc-ims.so.1:ims_get_temperature
libupmc-ims.so.1:ims_get_version
libupmc-ims.so.1:ims_init
libupmc-ims.so.1:ims_read
libupmc-ims.so.1:ims_reset
libupmc-ims.so.1:ims_reset_i2c_address
libupmc-ims.so.1:ims_sleep
libupmc-ims.so.1:ims_write
libupmc-jhd1313m1.so.1:jhd1313m1_autoscroll_on
libupmc-jhd1313m1.so.1:jhd1313m1_backlight_on
libupmc-jhd1313m1.so.1:jhd1313m1_clear
libupmc-jhd1313m1.so.1:jhd1313m1_close
libupmc-jhd1313m1.so.1:jhd1313m1_command
libupmc-jhd1313m1.so.1:jhd1313m1_create_char
libupmc-jhd1313m1.so.1:jhd1313m1_cursor_blink_on
libupmc-jhd1313m1.so.1:jhd1313m1_cursor_on
libupmc-jhd1313m1.so.1:jhd1313m1_data
libupmc-jhd1313m1.so.1:jhd1313m1_display_on
libupmc-jhd1313m1.so.1:jhd1313m1_entry_left_to_right
libupmc-jhd1313m1.so.1:jhd1313m1_home
libupmc-jhd1313m1.so.1:jhd1313m1_init
libupmc-jhd1313m1.so.1:jhd1313m1_scroll
libupmc-jhd1313m1.so.1:jhd1313m1_scroll_display_left
libupmc-jhd1313m1.so.1:jhd1313m1_scroll_display_right
libupmc-jhd1313m1.so.1:jhd1313m1_set_color
libupmc-jhd1313m1.so.1:jhd1313m1_set_cursor
libupmc-jhd1313m1.so.1:jhd1313m1_write
libupmc-joystick12.so.1:joystick12_calibrate_x
libupmc-joystick12.so.1:joystick12_calibrate_y
libupmc-joystick12.so.1:joystick12_close
libupmc-joystick12.so.1:joystick12_get_value_x
libupmc-joystick12.so.1:joystick12_get_value_y
libupmc-joystick12.so.1:joystick12_init
libupmc-joystick12.so.1:joystick12_read_data
libupmc-joystick12.so.1:joystick12_set_offset_x
libupmc-joystick12.so.1:joystick12_set_offset_y
libupmc-joystick12.so.1:joystick12_set_scale_x
libupmc-joystick12.so.1:joystick12_set_scale_y
libupmc-joystick12.so.1:joystick12_zero
libupmc-kx122.so.1:kx122_buffer_init
libupmc-kx122.so.1:kx122_clear_buffer
libupmc-kx122.so.1:kx122_clear_interrupt
libupmc-kx122.so.1:kx122_close
libupmc-kx122.so.1:kx122_device_init
libupmc-kx122.so.1:kx122_disable_buffer
libupmc-kx122.so.1:kx122_disable_buffer_full_interrupt
libupmc-kx122.so.1:kx122_disable_data_ready_interrupt
libupmc-kx122.so.1:kx122_disable_iir
libupmc-kx122.so.1:kx122_disable_interrupt1
libupmc-kx122.so.1:kx122_disable_interrupt2
libupmc-kx122.so.1:kx122_enable_buffer
libupmc-kx122.so.1:kx122_enable_buffer_full_interrupt
libupmc-kx122.so.1:kx122_enable_data_ready_interrupt
libupmc-kx122.so.1:kx122_enable_iir
libupmc-kx122.so.1:kx122_enable_interrupt1
libupmc-kx122.so.1:kx122_enable_interrupt2
libupmc-kx122.so.1:kx122_get_acceleration_data
libupmc-kx122.so.1:kx122_get_acceleration_data_raw
libupmc-kx122.so.1:kx122_get_buffer_status
libupmc-kx122.so.1:kx122_get_interrupt_source
libupmc-kx122.so.1:kx122_get_interrupt_status
libupmc-kx122.so.1:kx122_get_sample_period
libupmc-kx122.so.1:kx122_get_who_am_i
libupmc-kx122.so.1:kx122_init
libupmc-kx122.so.1:kx122_install_isr
libupmc-kx122.so.1:kx122_read_buffer_samples
libupmc-kx122.so.1:kx122_read_buffer_samples_raw
libupmc-kx122.so.1:kx122_route_interrupt1
libupmc-kx122.so.1:kx122_route_interrupt2
libupmc-kx122.so.1:kx122_self_test
libupmc-kx122.so.1:kx122_sensor_software_reset
libupmc-kx122.so.1:kx122_set_average
libupmc-kx122.so.1:kx122_set_buffer_mode
libupmc-kx122.so.1:kx122_set_buffer_resolution
libupmc-kx122.so.1:kx122_set_buffer_threshold
libupmc-kx122.so.1:kx122_set_bw
libupmc-kx122.so.1:kx122_set_grange
libupmc-kx122.so.1:kx122_set_odr
libupmc-kx122.so.1:kx122_set_resolution
libupmc-kx122.so.1:kx122_set_sensor_active
libupmc-kx122.so.1:kx122_set_sensor_standby
libupmc-kx122.so.1:kx122_uninstall_isr
libupmc-kxtj3.so.1:kxtj3_clear_interrupt_information
libupmc-kxtj3.so.1:kxtj3_close
libupmc-kxtj3.so.1:kxtj3_disable_data_ready_interrupt
libupmc-kxtj3.so.1:kxtj3_disable_interrupt_pin
libupmc-kxtj3.so.1:kxtj3_disable_wakeup_interrupt
libupmc-kxtj3.so.1:kxtj3_disable_wakeup_latch
libupmc-kxtj3.so.1:kxtj3_disable_wakeup_single_axis_direction
libupmc-kxtj3.so.1:kxtj3_enable_data_ready_interrupt
libupmc-kxtj3.so.1:kxtj3_enable_interrupt_pin
libupmc-kxtj3.so.1:kxtj3_enable_wakeup_interrupt
libupmc-kxtj3.so.1:kxtj3_enable_wakeup_latch
libupmc-kxtj3.so.1:kxtj3_enable_wakeup_single_axis_direction
libupmc-kxtj3.so.1:kxtj3_get_acceleration_data
libupmc-kxtj3.so.1:kxtj3_get_acceleration_data_raw
libupmc-kxtj3.so.1:kxtj3_get_acceleration_sampling_period
libupmc-kxtj3.so.1:kxtj3_get_interrupt_source
libupmc-kxtj3.so.1:kxtj3_get_interrupt_status
libupmc-kxtj3.so.1:kxtj3_get_wakeup_axis_and_direction
libupmc-kxtj3.so.1:kxtj3_get_wakeup_motion_time
libupmc-kxtj3.so.1:kxtj3_get_wakeup_non_activity_time
libupmc-kxtj3.so.1:kxtj3_get_wakeup_sampling_period
libupmc-kxtj3.so.1:kxtj3_get_wakeup_threshold
libupmc-kxtj3.so.1:kxtj3_get_who_am_i
libupmc-kxtj3.so.1:kxtj3_init
libupmc-kxtj3.so.1:kxtj3_install_isr
libupmc-kxtj3.so.1:kxtj3_read_interrupt_source1_reg
libupmc-kxtj3.so.1:kxtj3_self_test_digital_communication
libupmc-kxtj3.so.1:kxtj3_sensor_init
libupmc-kxtj3.so.1:kxtj3_sensor_self_test
libupmc-kxtj3.so.1:kxtj3_sensor_software_reset
libupmc-kxtj3.so.1:kxtj3_set_g_range
libupmc-kxtj3.so.1:kxtj3_set_interrupt_polarity
libupmc-kxtj3.so.1:kxtj3_set_interrupt_response
libupmc-kxtj3.so.1:kxtj3_set_odr
libupmc-kxtj3.so.1:kxtj3_set_odr_wakeup_function
libupmc-kxtj3.so.1:kxtj3_set_resolution
libupmc-kxtj3.so.1:kxtj3_set_sensor_active
libupmc-kxtj3.so.1:kxtj3_set_sensor_standby
libupmc-kxtj3.so.1:kxtj3_set_wakeup_motion_counter
libupmc-kxtj3.so.1:kxtj3_set_wakeup_motion_time
libupmc-kxtj3.so.1:kxtj3_set_wakeup_non_activity_counter
libupmc-kxtj3.so.1:kxtj3_set_wakeup_non_activity_time
libupmc-kxtj3.so.1:kxtj3_set_wakeup_threshold_counter
libupmc-kxtj3.so.1:kxtj3_set_wakeup_threshold_g_value
libupmc-kxtj3.so.1:kxtj3_uninstall_isr
libupmc-lcdks.so.1:lcdks_autoscroll_on
libupmc-lcdks.so.1:lcdks_backlight_on
libupmc-lcdks.so.1:lcdks_clear
libupmc-lcdks.so.1:lcdks_close
libupmc-lcdks.so.1:lcdks_create_char
libupmc-lcdks.so.1:lcdks_cursor_blink_on
libupmc-lcdks.so.1:lcdks_cursor_on
libupmc-lcdks.so.1:lcdks_display_on
libupmc-lcdks.so.1:lcdks_entry_left_to_right
libupmc-lcdks.so.1:lcdks_get_key_value
libupmc-lcdks.so.1:lcdks_home
libupmc-lcdks.so.1:lcdks_init
libupmc-lcdks.so.1:lcdks_scroll_display_left
libupmc-lcdks.so.1:lcdks_scroll_display_right
libupmc-lcdks.so.1:lcdks_set_cursor
libupmc-lcdks.so.1:lcdks_write
libupmc-lcm1602.so.1:lcm1602_autoscroll_on
libupmc-lcm1602.so.1:lcm1602_backlight_on
libupmc-lcm1602.so.1:lcm1602_clear
libupmc-lcm1602.so.1:lcm1602_close
libupmc-lcm1602.so.1:lcm1602_command
libupmc-lcm1602.so.1:lcm1602_create_char
libupmc-lcm1602.so.1:lcm1602_cursor_blink_on
libupmc-lcm1602.so.1:lcm1602_cursor_on
libupmc-lcm1602.so.1:lcm1602_data
libupmc-lcm1602.so.1:lcm1602_display_on
libupmc-lcm1602.so.1:lcm1602_entry_left_to_right
libupmc-lcm1602.so.1:lcm1602_gpio_init
libupmc-lcm1602.so.1:lcm1602_home
libupmc-lcm1602.so.1:lcm1602_i2c_init
libupmc-lcm1602.so.1:lcm1602_scroll_display_left
libupmc-lcm1602.so.1:lcm1602_scroll_display_right
libupmc-lcm1602.so.1:lcm1602_set_cursor
libupmc-lcm1602.so.1:lcm1602_write
libupmc-ldt0028.so.1:ldt0028_close
libupmc-ldt0028.so.1:ldt0028_get_aref
libupmc-ldt0028.so.1:ldt0028_get_normalized
libupmc-ldt0028.so.1:ldt0028_get_offset
libupmc-ldt0028.so.1:ldt0028_get_raw_volts
libupmc-ldt0028.so.1:ldt0028_get_scale
libupmc-ldt0028.so.1:ldt0028_get_volts
libupmc-ldt0028.so.1:ldt0028_init
libupmc-ldt0028.so.1:ldt0028_set_aref
libupmc-ldt0028.so.1:ldt0028_set_offset
libupmc-ldt0028.so.1:ldt0028_set_scale
libupmc-led.so.1:led_close
libupmc-led.so.1:led_init
libupmc-led.so.1:led_init_str
libupmc-led.so.1:led_off
libupmc-led.so.1:led_on
libupmc-light.so.1:light_close
libupmc-light.so.1:light_get_aref
libupmc-light.so.1:light_get_lux
libupmc-light.so.1:light_get_normalized
libupmc-light.so.1:light_get_offset
libupmc-light.so.1:light_get_raw_volts
libupmc-light.so.1:light_get_scale
libupmc-light.so.1:light_init
libupmc-light.so.1:light_set_aref
libupmc-light.so.1:light_set_offset
libupmc-light.so.1:light_set_scale
libupmc-linefinder.so.1:linefinder_black_detected
libupmc-linefinder.so.1:linefinder_close
libupmc-linefinder.so.1:linefinder_init
libupmc-linefinder.so.1:linefinder_white_detected
libupmc-lis2ds12.so.1:lis2ds12_close
libupmc-lis2ds12.so.1:lis2ds12_devinit
libupmc-lis2ds12.so.1:lis2ds12_enable_hp_filtering
libupmc-lis2ds12.so.1:lis2ds12_enable_interrupt_latching
libupmc-lis2ds12.so.1:lis2ds12_get_accelerometer
libupmc-lis2ds12.so.1:lis2ds12_get_chip_id
libupmc-lis2ds12.so.1:lis2ds12_get_status
libupmc-lis2ds12.so.1:lis2ds12_get_temperature
libupmc-lis2ds12.so.1:lis2ds12_init
libupmc-lis2ds12.so.1:lis2ds12_install_isr
libupmc-lis2ds12.so.1:lis2ds12_read_reg
libupmc-lis2ds12.so.1:lis2ds12_read_regs
libupmc-lis2ds12.so.1:lis2ds12_reset
libupmc-lis2ds12.so.1:lis2ds12_set_full_scale
libupmc-lis2ds12.so.1:lis2ds12_set_int1_config
libupmc-lis2ds12.so.1:lis2ds12_set_int2_config
libupmc-lis2ds12.so.1:lis2ds12_set_interrupt_active_high
libupmc-lis2ds12.so.1:lis2ds12_set_interrupt_push_pull
libupmc-lis2ds12.so.1:lis2ds12_set_odr
libupmc-lis2ds12.so.1:lis2ds12_uninstall_isr
libupmc-lis2ds12.so.1:lis2ds12_update
libupmc-lis2ds12.so.1:lis2ds12_write_reg
libupmc-lis3dh.so.1:lis3dh_close
libupmc-lis3dh.so.1:lis3dh_devinit
libupmc-lis3dh.so.1:lis3dh_enable_adc
libupmc-lis3dh.so.1:lis3dh_enable_axes
libupmc-lis3dh.so.1:lis3dh_enable_bdu_mode
libupmc-lis3dh.so.1:lis3dh_enable_hp_filtering
libupmc-lis3dh.so.1:lis3dh_enable_hr_mode
libupmc-lis3dh.so.1:lis3dh_enable_interrupt_latching
libupmc-lis3dh.so.1:lis3dh_enable_lp_mode
libupmc-lis3dh.so.1:lis3dh_enable_normal_mode
libupmc-lis3dh.so.1:lis3dh_enable_temperature
libupmc-lis3dh.so.1:lis3dh_get_accelerometer
libupmc-lis3dh.so.1:lis3dh_get_chip_id
libupmc-lis3dh.so.1:lis3dh_get_status
libupmc-lis3dh.so.1:lis3dh_get_status_aux
libupmc-lis3dh.so.1:lis3dh_get_temperature
libupmc-lis3dh.so.1:lis3dh_init
libupmc-lis3dh.so.1:lis3dh_install_isr
libupmc-lis3dh.so.1:lis3dh_read_reg
libupmc-lis3dh.so.1:lis3dh_read_regs
libupmc-lis3dh.so.1:lis3dh_set_full_scale
libupmc-lis3dh.so.1:lis3dh_set_int1_config
libupmc-lis3dh.so.1:lis3dh_set_int2_config
libupmc-lis3dh.so.1:lis3dh_set_interrupt_active_high
libupmc-lis3dh.so.1:lis3dh_set_odr
libupmc-lis3dh.so.1:lis3dh_uninstall_isr
libupmc-lis3dh.so.1:lis3dh_update
libupmc-lis3dh.so.1:lis3dh_write_reg
libupmc-lm35.so.1:lm35_close
libupmc-lm35.so.1:lm35_get_temperature
libupmc-lm35.so.1:lm35_init
libupmc-lm35.so.1:lm35_set_offset
libupmc-lm35.so.1:lm35_set_scale
libupmc-loudness.so.1:loudness_close
libupmc-loudness.so.1:loudness_get_value
libupmc-loudness.so.1:loudness_init
libupmc-lsm303agr.so.1:lsm303agr_close
libupmc-lsm303agr.so.1:lsm303agr_devinit
libupmc-lsm303agr.so.1:lsm303agr_get_acc_int1_config
libupmc-lsm303agr.so.1:lsm303agr_get_acc_int1_src
libupmc-lsm303agr.so.1:lsm303agr_get_acc_int2_config
libupmc-lsm303agr.so.1:lsm303agr_get_acc_int2_src
libupmc-lsm303agr.so.1:lsm303agr_get_accelerometer
libupmc-lsm303agr.so.1:lsm303agr_get_mag_int_config
libupmc-lsm303agr.so.1:lsm303agr_get_mag_int_src
libupmc-lsm303agr.so.1:lsm303agr_get_magnetometer
libupmc-lsm303agr.so.1:lsm303agr_get_temperature
libupmc-lsm303agr.so.1:lsm303agr_init
libupmc-lsm303agr.so.1:lsm303agr_install_isr
libupmc-lsm303agr.so.1:lsm303agr_read_reg
libupmc-lsm303agr.so.1:lsm303agr_read_regs
libupmc-lsm303agr.so.1:lsm303agr_set_acc_int1_config
libupmc-lsm303agr.so.1:lsm303agr_set_acc_int2_config
libupmc-lsm303agr.so.1:lsm303agr_set_acc_odr
libupmc-lsm303agr.so.1:lsm303agr_set_full_scale
libupmc-lsm303agr.so.1:lsm303agr_set_mag_int_config
libupmc-lsm303agr.so.1:lsm303agr_set_mag_odr
libupmc-lsm303agr.so.1:lsm303agr_set_power_mode
libupmc-lsm303agr.so.1:lsm303agr_uninstall_isr
libupmc-lsm303agr.so.1:lsm303agr_update
libupmc-lsm303agr.so.1:lsm303agr_write_reg
libupmc-lsm303d.so.1:lsm303d_close
libupmc-lsm303d.so.1:lsm303d_devinit
libupmc-lsm303d.so.1:lsm303d_get_accelerometer
libupmc-lsm303d.so.1:lsm303d_get_magnetometer
libupmc-lsm303d.so.1:lsm303d_get_temperature
libupmc-lsm303d.so.1:lsm303d_init
libupmc-lsm303d.so.1:lsm303d_read_reg
libupmc-lsm303d.so.1:lsm303d_read_regs
libupmc-lsm303d.so.1:lsm303d_set_acc_full_scale
libupmc-lsm303d.so.1:lsm303d_set_acc_odr
libupmc-lsm303d.so.1:lsm303d_set_mag_full_scale
libupmc-lsm303d.so.1:lsm303d_set_mag_odr
libupmc-lsm303d.so.1:lsm303d_update
libupmc-lsm303d.so.1:lsm303d_write_reg
libupmc-lsm6ds3h.so.1:lsm6ds3h_close
libupmc-lsm6ds3h.so.1:lsm6ds3h_devinit
libupmc-lsm6ds3h.so.1:lsm6ds3h_get_accelerometer
libupmc-lsm6ds3h.so.1:lsm6ds3h_get_chip_id
libupmc-lsm6ds3h.so.1:lsm6ds3h_get_gyroscope
libupmc-lsm6ds3h.so.1:lsm6ds3h_get_status
libupmc-lsm6ds3h.so.1:lsm6ds3h_get_temperature
libupmc-lsm6ds3h.so.1:lsm6ds3h_high_performance
libupmc-lsm6ds3h.so.1:lsm6ds3h_init
libupmc-lsm6ds3h.so.1:lsm6ds3h_install_isr
libupmc-lsm6ds3h.so.1:lsm6ds3h_read_reg
libupmc-lsm6ds3h.so.1:lsm6ds3h_read_regs
libupmc-lsm6ds3h.so.1:lsm6ds3h_reset
libupmc-lsm6ds3h.so.1:lsm6ds3h_set_acc_full_scale
libupmc-lsm6ds3h.so.1:lsm6ds3h_set_acc_odr
libupmc-lsm6ds3h.so.1:lsm6ds3h_set_gyr_full_scale
libupmc-lsm6ds3h.so.1:lsm6ds3h_set_gyr_odr
libupmc-lsm6ds3h.so.1:lsm6ds3h_set_interrupt_active_high
libupmc-lsm6ds3h.so.1:lsm6ds3h_set_interrupt_push_pull
libupmc-lsm6ds3h.so.1:lsm6ds3h_uninstall_isr
libupmc-lsm6ds3h.so.1:lsm6ds3h_update
libupmc-lsm6ds3h.so.1:lsm6ds3h_write_reg
libupmc-lsm6dsl.so.1:lsm6dsl_close
libupmc-lsm6dsl.so.1:lsm6dsl_devinit
libupmc-lsm6dsl.so.1:lsm6dsl_get_accelerometer
libupmc-lsm6dsl.so.1:lsm6dsl_get_chip_id
libupmc-lsm6dsl.so.1:lsm6dsl_get_gyroscope
libupmc-lsm6dsl.so.1:lsm6dsl_get_status
libupmc-lsm6dsl.so.1:lsm6dsl_get_temperature
libupmc-lsm6dsl.so.1:lsm6dsl_high_performance
libupmc-lsm6dsl.so.1:lsm6dsl_init
libupmc-lsm6dsl.so.1:lsm6dsl_install_isr
libupmc-lsm6dsl.so.1:lsm6dsl_read_reg
libupmc-lsm6dsl.so.1:lsm6dsl_read_regs
libupmc-lsm6dsl.so.1:lsm6dsl_reset
libupmc-lsm6dsl.so.1:lsm6dsl_set_acc_full_scale
libupmc-lsm6dsl.so.1:lsm6dsl_set_acc_odr
libupmc-lsm6dsl.so.1:lsm6dsl_set_acc_offsets
libupmc-lsm6dsl.so.1:lsm6dsl_set_gyr_full_scale
libupmc-lsm6dsl.so.1:lsm6dsl_set_gyr_odr
libupmc-lsm6dsl.so.1:lsm6dsl_set_interrupt_active_high
libupmc-lsm6dsl.so.1:lsm6dsl_set_interrupt_push_pull
libupmc-lsm6dsl.so.1:lsm6dsl_uninstall_isr
libupmc-lsm6dsl.so.1:lsm6dsl_update
libupmc-lsm6dsl.so.1:lsm6dsl_write_reg
libupmc-m24lr64e.so.1:m24lr64e_clear_memory
libupmc-m24lr64e.so.1:m24lr64e_clear_sector_protect
libupmc-m24lr64e.so.1:m24lr64e_close
libupmc-m24lr64e.so.1:m24lr64e_eeprom_read_byte
libupmc-m24lr64e.so.1:m24lr64e_eeprom_read_bytes
libupmc-m24lr64e.so.1:m24lr64e_eeprom_write_byte
libupmc-m24lr64e.so.1:m24lr64e_eeprom_write_bytes
libupmc-m24lr64e.so.1:m24lr64e_get_afi
libupmc-m24lr64e.so.1:m24lr64e_get_dsfid
libupmc-m24lr64e.so.1:m24lr64e_get_memory_size
libupmc-m24lr64e.so.1:m24lr64e_get_uid
libupmc-m24lr64e.so.1:m24lr64e_init
libupmc-m24lr64e.so.1:m24lr64e_read_byte
libupmc-m24lr64e.so.1:m24lr64e_read_bytes
libupmc-m24lr64e.so.1:m24lr64e_sector_protect_config
libupmc-m24lr64e.so.1:m24lr64e_sector_write_lock_bit
libupmc-m24lr64e.so.1:m24lr64e_submit_password
libupmc-m24lr64e.so.1:m24lr64e_write_byte
libupmc-m24lr64e.so.1:m24lr64e_write_bytes
libupmc-m24lr64e.so.1:m24lr64e_write_password
libupmc-max30100.so.1:max30100_close
libupmc-max30100.so.1:max30100_get_current
libupmc-max30100.so.1:max30100_get_high_res
libupmc-max30100.so.1:max30100_get_mode
libupmc-max30100.so.1:max30100_get_pulse_width
libupmc-max30100.so.1:max30100_get_sample_rate
libupmc-max30100.so.1:max30100_get_temperature
libupmc-max30100.so.1:max30100_get_version
libupmc-max30100.so.1:max30100_init
libupmc-max30100.so.1:max30100_rd_mod_wr
libupmc-max30100.so.1:max30100_read
libupmc-max30100.so.1:max30100_reset
libupmc-max30100.so.1:max30100_sample
libupmc-max30100.so.1:max30100_sample_continuous
libupmc-max30100.so.1:max30100_sample_stop
libupmc-max30100.so.1:max30100_set_current
libupmc-max30100.so.1:max30100_set_high_res
libupmc-max30100.so.1:max30100_set_mode
libupmc-max30100.so.1:max30100_set_pulse_width
libupmc-max30100.so.1:max30100_set_sample_rate
libupmc-max30100.so.1:max30100_sleep
libupmc-max30100.so.1:max30100_write
libupmc-mb704x.so.1:mb704x_close
libupmc-mb704x.so.1:mb704x_get_range
libupmc-mb704x.so.1:mb704x_init
libupmc-mcp2515.so.1:mcp2515_abort_tx
libupmc-mcp2515.so.1:mcp2515_bit_modify
libupmc-mcp2515.so.1:mcp2515_bus_read
libupmc-mcp2515.so.1:mcp2515_bus_write
libupmc-mcp2515.so.1:mcp2515_clear_error_flags
libupmc-mcp2515.so.1:mcp2515_clear_intr_flags
libupmc-mcp2515.so.1:mcp2515_close
libupmc-mcp2515.so.1:mcp2515_find_free_tx_buffer
libupmc-mcp2515.so.1:mcp2515_get_error_flags
libupmc-mcp2515.so.1:mcp2515_get_intr_flags
libupmc-mcp2515.so.1:mcp2515_get_rx_msg
libupmc-mcp2515.so.1:mcp2515_init
libupmc-mcp2515.so.1:mcp2515_install_isr
libupmc-mcp2515.so.1:mcp2515_load_tx_buffer
libupmc-mcp2515.so.1:mcp2515_print_msg
libupmc-mcp2515.so.1:mcp2515_read_reg
libupmc-mcp2515.so.1:mcp2515_reset
libupmc-mcp2515.so.1:mcp2515_rx_status_filtermatch
libupmc-mcp2515.so.1:mcp2515_rx_status_msg_type
libupmc-mcp2515.so.1:mcp2515_rx_status_msgs
libupmc-mcp2515.so.1:mcp2515_set_filter
libupmc-mcp2515.so.1:mcp2515_set_intr_enables
libupmc-mcp2515.so.1:mcp2515_set_intr_flags
libupmc-mcp2515.so.1:mcp2515_set_mask
libupmc-mcp2515.so.1:mcp2515_set_opmode
libupmc-mcp2515.so.1:mcp2515_set_rx_buffer_mode
libupmc-mcp2515.so.1:mcp2515_set_speed
libupmc-mcp2515.so.1:mcp2515_set_tx_buffer_priority
libupmc-mcp2515.so.1:mcp2515_transmit_buffer
libupmc-mcp2515.so.1:mcp2515_tx_buffer_is_free
libupmc-mcp2515.so.1:mcp2515_uninstall_isr
libupmc-mcp2515.so.1:mcp2515_write_reg
libupmc-mcp2515.so.1:mcp2515_write_regs
libupmc-md.so.1:md_close
libupmc-md.so.1:md_config_stepper
libupmc-md.so.1:md_disable_stepper
libupmc-md.so.1:md_enable_stepper
libupmc-md.so.1:md_init
libupmc-md.so.1:md_set_motor_directions
libupmc-md.so.1:md_set_motor_speeds
libupmc-md.so.1:md_set_pwm_frequency_prescale
libupmc-md.so.1:md_set_stepper_steps
libupmc-md.so.1:md_write_packet
libupmc-mic.so.1:mic_close
libupmc-mic.so.1:mic_get_value
libupmc-mic.so.1:upm_mic_init
libupmc-mma7361.so.1:mma7361_close
libupmc-mma7361.so.1:mma7361_freefall
libupmc-mma7361.so.1:mma7361_get_acceleration
libupmc-mma7361.so.1:mma7361_get_normalized
libupmc-mma7361.so.1:mma7361_get_volts
libupmc-mma7361.so.1:mma7361_init
libupmc-mma7361.so.1:mma7361_selftest
libupmc-mma7361.so.1:mma7361_set_offset
libupmc-mma7361.so.1:mma7361_set_range
libupmc-mma7361.so.1:mma7361_set_scale
libupmc-mma7361.so.1:mma7361_sleep
libupmc-mma7361.so.1:mma7361_update
libupmc-mma7660.so.1:mma7660_close
libupmc-mma7660.so.1:mma7660_get_acceleration
libupmc-mma7660.so.1:mma7660_get_raw_values
libupmc-mma7660.so.1:mma7660_get_verified_axis
libupmc-mma7660.so.1:mma7660_get_verified_tilt
libupmc-mma7660.so.1:mma7660_init
libupmc-mma7660.so.1:mma7660_install_isr
libupmc-mma7660.so.1:mma7660_read_byte
libupmc-mma7660.so.1:mma7660_set_interrupt_bits
libupmc-mma7660.so.1:mma7660_set_mode_active
libupmc-mma7660.so.1:mma7660_set_mode_standby
libupmc-mma7660.so.1:mma7660_set_sample_rate
libupmc-mma7660.so.1:mma7660_tilt_back_front
libupmc-mma7660.so.1:mma7660_tilt_landscape_portrait
libupmc-mma7660.so.1:mma7660_tilt_shake
libupmc-mma7660.so.1:mma7660_tilt_tap
libupmc-mma7660.so.1:mma7660_uninstall_isr
libupmc-mma7660.so.1:mma7660_write_byte
libupmc-moisture.so.1:moisture_close
libupmc-moisture.so.1:moisture_get_moisture
libupmc-moisture.so.1:moisture_init
libupmc-mpr121.so.1:mpr121_close
libupmc-mpr121.so.1:mpr121_config_an3944
libupmc-mpr121.so.1:mpr121_init
libupmc-mpr121.so.1:mpr121_read_buttons
libupmc-mpr121.so.1:mpr121_read_bytes
libupmc-mpr121.so.1:mpr121_write_bytes
libupmc-mq303a.so.1:mq303a_close
libupmc-mq303a.so.1:mq303a_get_value
libupmc-mq303a.so.1:mq303a_heater_enable
libupmc-mq303a.so.1:mq303a_init
libupmc-ms5803.so.1:ms5803_bus_read
libupmc-ms5803.so.1:ms5803_bus_write
libupmc-ms5803.so.1:ms5803_close
libupmc-ms5803.so.1:ms5803_get_pressure
libupmc-ms5803.so.1:ms5803_get_temperature
libupmc-ms5803.so.1:ms5803_init
libupmc-ms5803.so.1:ms5803_load_coefficients
libupmc-ms5803.so.1:ms5803_reset
libupmc-ms5803.so.1:ms5803_set_pressure_osr
libupmc-ms5803.so.1:ms5803_set_temperature_osr
libupmc-ms5803.so.1:ms5803_update
libupmc-my9221.so.1:my9221_clear_all
libupmc-my9221.so.1:my9221_close
libupmc-my9221.so.1:my9221_get_max_leds
libupmc-my9221.so.1:my9221_init
libupmc-my9221.so.1:my9221_refresh
libupmc-my9221.so.1:my9221_set_all
libupmc-my9221.so.1:my9221_set_auto_refresh
libupmc-my9221.so.1:my9221_set_high_intensity_value
libupmc-my9221.so.1:my9221_set_led
libupmc-my9221.so.1:my9221_set_low_intensity_value
libupmc-nmea_gps.so.1:nmea_gps_close
libupmc-nmea_gps.so.1:nmea_gps_data_available
libupmc-nmea_gps.so.1:nmea_gps_enable
libupmc-nmea_gps.so.1:nmea_gps_init
libupmc-nmea_gps.so.1:nmea_gps_init_raw
libupmc-nmea_gps.so.1:nmea_gps_init_ublox_i2c
libupmc-nmea_gps.so.1:nmea_gps_read
libupmc-nmea_gps.so.1:nmea_gps_set_baudrate
libupmc-nmea_gps.so.1:nmea_gps_write
libupmc-nunchuck.so.1:nunchuck_close
libupmc-nunchuck.so.1:nunchuck_get_acceleration
libupmc-nunchuck.so.1:nunchuck_get_buttons
libupmc-nunchuck.so.1:nunchuck_get_stick
libupmc-nunchuck.so.1:nunchuck_init
libupmc-nunchuck.so.1:nunchuck_update
libupmc-o2.so.1:o2_close
libupmc-o2.so.1:o2_get_aref
libupmc-o2.so.1:o2_get_counts
libupmc-o2.so.1:o2_get_offset
libupmc-o2.so.1:o2_get_raw_volts
libupmc-o2.so.1:o2_get_scale
libupmc-o2.so.1:o2_get_value
libupmc-o2.so.1:o2_init
libupmc-o2.so.1:o2_set_aref
libupmc-o2.so.1:o2_set_offset
libupmc-o2.so.1:o2_set_scale
libupmc-otp538u.so.1:otp538u_close
libupmc-otp538u.so.1:otp538u_get_ambient_temperature
libupmc-otp538u.so.1:otp538u_get_object_temperature
libupmc-otp538u.so.1:otp538u_init
libupmc-otp538u.so.1:otp538u_set_debug
libupmc-otp538u.so.1:otp538u_set_ivref
libupmc-otp538u.so.1:otp538u_set_output_resistence
libupmc-otp538u.so.1:otp538u_set_voltage_offset
libupmc-p9813.so.1:p9813_close
libupmc-p9813.so.1:p9813_init
libupmc-p9813.so.1:p9813_refresh
libupmc-p9813.so.1:p9813_send_byte
libupmc-p9813.so.1:p9813_set_led
libupmc-p9813.so.1:p9813_set_leds
libupmc-ppd42ns.so.1:pcs2ugm3
libupmc-ppd42ns.so.1:ppd42ns_close
libupmc-ppd42ns.so.1:ppd42ns_get_data
libupmc-ppd42ns.so.1:ppd42ns_init
libupmc-relay.so.1:relay_close
libupmc-relay.so.1:relay_init
libupmc-relay.so.1:relay_is_off
libupmc-relay.so.1:relay_is_on
libupmc-relay.so.1:relay_off
libupmc-relay.so.1:relay_on
libupmc-rn2903.so.1:rn2903_autobaud
libupmc-rn2903.so.1:rn2903_close
libupmc-rn2903.so.1:rn2903_command
libupmc-rn2903.so.1:rn2903_command_with_arg
libupmc-rn2903.so.1:rn2903_data_available
libupmc-rn2903.so.1:rn2903_drain
libupmc-rn2903.so.1:rn2903_find
libupmc-rn2903.so.1:rn2903_from_hex
libupmc-rn2903.so.1:rn2903_get_application_eui
libupmc-rn2903.so.1:rn2903_get_application_key
libupmc-rn2903.so.1:rn2903_get_device_addr
libupmc-rn2903.so.1:rn2903_get_device_eui
libupmc-rn2903.so.1:rn2903_get_hardware_eui
libupmc-rn2903.so.1:rn2903_get_mac_status
libupmc-rn2903.so.1:rn2903_get_mac_status_word
libupmc-rn2903.so.1:rn2903_get_radio_rx_payload
libupmc-rn2903.so.1:rn2903_get_response
libupmc-rn2903.so.1:rn2903_get_response_len
libupmc-rn2903.so.1:rn2903_init
libupmc-rn2903.so.1:rn2903_init_tty
libupmc-rn2903.so.1:rn2903_join
libupmc-rn2903.so.1:rn2903_mac_pause
libupmc-rn2903.so.1:rn2903_mac_resume
libupmc-rn2903.so.1:rn2903_mac_save
libupmc-rn2903.so.1:rn2903_mac_set_battery
libupmc-rn2903.so.1:rn2903_mac_tx
libupmc-rn2903.so.1:rn2903_radio_rx
libupmc-rn2903.so.1:rn2903_radio_tx
libupmc-rn2903.so.1:rn2903_read
libupmc-rn2903.so.1:rn2903_reset
libupmc-rn2903.so.1:rn2903_set_application_eui
libupmc-rn2903.so.1:rn2903_set_application_key
libupmc-rn2903.so.1:rn2903_set_application_session_key
libupmc-rn2903.so.1:rn2903_set_baudrate
libupmc-rn2903.so.1:rn2903_set_debug
libupmc-rn2903.so.1:rn2903_set_device_addr
libupmc-rn2903.so.1:rn2903_set_device_eui
libupmc-rn2903.so.1:rn2903_set_flow_control
libupmc-rn2903.so.1:rn2903_set_network_session_key
libupmc-rn2903.so.1:rn2903_set_response2_wait_time
libupmc-rn2903.so.1:rn2903_set_response_wait_time
libupmc-rn2903.so.1:rn2903_to_hex
libupmc-rn2903.so.1:rn2903_update_mac_status
libupmc-rn2903.so.1:rn2903_waitfor_response
libupmc-rn2903.so.1:rn2903_write
libupmc-rotary.so.1:rotary_close
libupmc-rotary.so.1:rotary_get_value_angle
libupmc-rotary.so.1:rotary_get_value_voltage
libupmc-rotary.so.1:rotary_init
libupmc-rotaryencoder.so.1:rotaryencoder_close
libupmc-rotaryencoder.so.1:rotaryencoder_get_position
libupmc-rotaryencoder.so.1:rotaryencoder_init
libupmc-rotaryencoder.so.1:rotaryencoder_set_position
libupmc-rpr220.so.1:rpr220_black_detected
libupmc-rpr220.so.1:rpr220_close
libupmc-rpr220.so.1:rpr220_init
libupmc-rpr220.so.1:rpr220_install_isr
libupmc-rpr220.so.1:rpr220_uninstall_isr
libupmc-rsc.so.1:rsc_adc_read
libupmc-rsc.so.1:rsc_adc_write
libupmc-rsc.so.1:rsc_add_dr_delay
libupmc-rsc.so.1:rsc_close
libupmc-rsc.so.1:rsc_eeprom_read
libupmc-rsc.so.1:rsc_get_initial_adc_values
libupmc-rsc.so.1:rsc_get_minimum_pressure
libupmc-rsc.so.1:rsc_get_pressure
libupmc-rsc.so.1:rsc_get_pressure_range
libupmc-rsc.so.1:rsc_get_pressure_type
libupmc-rsc.so.1:rsc_get_pressure_unit
libupmc-rsc.so.1:rsc_get_sensor_name
libupmc-rsc.so.1:rsc_get_sensor_serial_number
libupmc-rsc.so.1:rsc_get_temperature
libupmc-rsc.so.1:rsc_init
libupmc-rsc.so.1:rsc_retrieve_coefficients
libupmc-rsc.so.1:rsc_set_access_type
libupmc-rsc.so.1:rsc_set_data_rate
libupmc-rsc.so.1:rsc_set_mode
libupmc-rsc.so.1:rsc_setup_adc
libupmc-servo.so.1:es08a_calc_pulse_travelling
libupmc-servo.so.1:es08a_get_max_pulse_width
libupmc-servo.so.1:es08a_get_min_pulse_width
libupmc-servo.so.1:es08a_halt
libupmc-servo.so.1:es08a_init
libupmc-servo.so.1:es08a_set_angle
libupmc-servo.so.1:es08a_set_max_pulse_width
libupmc-servo.so.1:es08a_set_min_pulse_width
libupmc-servo.so.1:es9257_calc_pulse_travelling
libupmc-servo.so.1:es9257_get_max_pulse_width
libupmc-servo.so.1:es9257_get_min_pulse_width
libupmc-servo.so.1:es9257_halt
libupmc-servo.so.1:es9257_init
libupmc-servo.so.1:es9257_set_angle
libupmc-servo.so.1:es9257_set_max_pulse_width
libupmc-servo.so.1:es9257_set_min_pulse_width
libupmc-sht1x.so.1:sht1x_close
libupmc-sht1x.so.1:sht1x_get_humidity
libupmc-sht1x.so.1:sht1x_get_temperature
libupmc-sht1x.so.1:sht1x_init
libupmc-sht1x.so.1:sht1x_read_8bits
libupmc-sht1x.so.1:sht1x_read_status
libupmc-sht1x.so.1:sht1x_reset
libupmc-sht1x.so.1:sht1x_send_command
libupmc-sht1x.so.1:sht1x_set_volts
libupmc-sht1x.so.1:sht1x_start_xmit
libupmc-sht1x.so.1:sht1x_update
libupmc-sht1x.so.1:sht1x_wait_for_response
libupmc-sht1x.so.1:sht1x_write_8bits
libupmc-sht1x.so.1:sht1x_write_status
libupmc-slide.so.1:slide_close
libupmc-slide.so.1:slide_get_aref
libupmc-slide.so.1:slide_get_normalized
libupmc-slide.so.1:slide_get_offset
libupmc-slide.so.1:slide_get_raw_volts
libupmc-slide.so.1:slide_get_scale
libupmc-slide.so.1:slide_get_volts
libupmc-slide.so.1:slide_init
libupmc-slide.so.1:slide_set_aref
libupmc-slide.so.1:slide_set_offset
libupmc-slide.so.1:slide_set_scale
libupmc-speaker.so.1:speaker_close
libupmc-speaker.so.1:speaker_emit
libupmc-speaker.so.1:speaker_init
libupmc-speaker.so.1:speaker_init_pwm
libupmc-speaker.so.1:speaker_off
libupmc-speaker.so.1:speaker_on
libupmc-speaker.so.1:speaker_play_all
libupmc-speaker.so.1:speaker_play_sound
libupmc-speaker.so.1:speaker_set_frequency
libupmc-temperature.so.1:temperature_close
libupmc-temperature.so.1:temperature_get_value
libupmc-temperature.so.1:temperature_init
libupmc-tsl2561.so.1:tsl2561_close
libupmc-tsl2561.so.1:tsl2561_compute_lux
libupmc-tsl2561.so.1:tsl2561_get_lux
libupmc-tsl2561.so.1:tsl2561_i2c_read_reg
libupmc-tsl2561.so.1:tsl2561_i2c_write_reg
libupmc-tsl2561.so.1:tsl2561_init
libupmc-ttp223.so.1:ttp223_close
libupmc-ttp223.so.1:ttp223_init
libupmc-ttp223.so.1:ttp223_is_pressed
libupmc-ttp223.so.1:ttp223_uninstall_isr
libupmc-ttp223.so.1:upm_ttp223_install_isr
libupmc-uartat.so.1:uartat_close
libupmc-uartat.so.1:uartat_command
libupmc-uartat.so.1:uartat_command_mode
libupmc-uartat.so.1:uartat_command_waitfor
libupmc-uartat.so.1:uartat_command_with_response
libupmc-uartat.so.1:uartat_data_available
libupmc-uartat.so.1:uartat_drain
libupmc-uartat.so.1:uartat_filter_cr
libupmc-uartat.so.1:uartat_find
libupmc-uartat.so.1:uartat_in_command_mode
libupmc-uartat.so.1:uartat_init
libupmc-uartat.so.1:uartat_init_tty
libupmc-uartat.so.1:uartat_read
libupmc-uartat.so.1:uartat_set_baudrate
libupmc-uartat.so.1:uartat_set_flow_control
libupmc-uartat.so.1:uartat_set_response_wait_time
libupmc-uartat.so.1:uartat_write
libupmc-uln200xa.so.1:uln200xa_close
libupmc-uln200xa.so.1:uln200xa_init
libupmc-uln200xa.so.1:uln200xa_release
libupmc-uln200xa.so.1:uln200xa_set_direction
libupmc-uln200xa.so.1:uln200xa_set_speed
libupmc-uln200xa.so.1:uln200xa_stepper_steps
libupmc-urm37.so.1:urm37_close
libupmc-urm37.so.1:urm37_get_distance
libupmc-urm37.so.1:urm37_get_temperature
libupmc-urm37.so.1:urm37_init
libupmc-urm37.so.1:urm37_read_eeprom
libupmc-urm37.so.1:urm37_reset
libupmc-urm37.so.1:urm37_send_command
libupmc-urm37.so.1:urm37_write_eeprom
libupmc-utilities.so.1:upm_clock_init
libupmc-utilities.so.1:upm_delay
libupmc-utilities.so.1:upm_delay_ms
libupmc-utilities.so.1:upm_delay_ns
libupmc-utilities.so.1:upm_delay_us
libupmc-utilities.so.1:upm_elapsed_ms
libupmc-utilities.so.1:upm_elapsed_ns
libupmc-utilities.so.1:upm_elapsed_us
libupmc-utilities.so.1:upm_ugm3_to_aqi
libupmc-vdiv.so.1:vdiv_close
libupmc-vdiv.so.1:vdiv_get_computed_volts
libupmc-vdiv.so.1:vdiv_get_divsw
libupmc-vdiv.so.1:vdiv_get_offset
libupmc-vdiv.so.1:vdiv_get_raw_volts
libupmc-vdiv.so.1:vdiv_get_scale
libupmc-vdiv.so.1:vdiv_init
libupmc-vdiv.so.1:vdiv_set_divsw
libupmc-vdiv.so.1:vdiv_set_offset
libupmc-vdiv.so.1:vdiv_set_scale
libupmc-veml6070.so.1:veml6070_close
libupmc-veml6070.so.1:veml6070_get_uv_intensity
libupmc-veml6070.so.1:veml6070_init
libupmc-veml6070.so.1:veml6070_set_integration_time
libupmc-water.so.1:water_close
libupmc-water.so.1:water_init
libupmc-water.so.1:water_is_wet
libupmc-wfs.so.1:wfs_clear_flow_counter
libupmc-wfs.so.1:wfs_close
libupmc-wfs.so.1:wfs_flow_counter
libupmc-wfs.so.1:wfs_flow_rate
libupmc-wfs.so.1:wfs_get_millis
libupmc-wfs.so.1:wfs_init
libupmc-wfs.so.1:wfs_init_clock
libupmc-wfs.so.1:wfs_start_flow_counter
libupmc-wfs.so.1:wfs_stop_flow_counter
libupmc-yg1006.so.1:yg1006_close
libupmc-yg1006.so.1:yg1006_flame_detected
libupmc-yg1006.so.1:yg1006_init
